(lp0
(lp1
F0.0
aF0.0
aF0.0
aF0.0
aa(lp2
F0.0
aF0.0
aF0.0
aF0.0
aa(lp3
F0.0
aF0.0
aF0.0
aF0.0
aa(lp4
F0.0
aF0.0
aF0.0
aF0.0
aa(lp5
F0.0
aF0.0
aF0.0
aF0.0
aa(lp6
F0.0
aF0.0
aF0.0
aF0.0
aa(lp7
F0.0
aF0.0
aF0.0
aF0.0
aa(lp8
F0.0
aF0.0
aF0.0
aF0.0
aa(lp9
F0.0
aF0.0
aF0.0
aF0.0
aa(lp10
F0.0
aF0.0
aF0.0
aF0.0
aa(lp11
F0.0
aF0.0
aF0.0
aF0.0
aa(lp12
F0.0
aF0.0
aF0.0
aF0.0
aa(lp13
F0.0
aF0.0
aF0.0
aF0.0
aa(lp14
F0.0
aF0.0
aF0.0
aF0.0
aa(lp15
F0.0
aF0.0
aF0.0
aF0.0
aa(lp16
F0.0
aF0.0
aF0.0014297078315672904
aF0.0
aa(lp17
F0.11925506370813961
aF0.0042224999344882995
aF0.005261047371323655
aF0.6388487779935095
aa(lp18
F0.0
aF0.14101435574090926
aF0.11543781481356741
aF2.0326954918477513
aa(lp19
F0.09482746682016542
aF0.23766402659183156
aF0.2850168470080429
aF2.7351282968957107
aa(lp20
F3.2210880219705254
aF0.31191498534409956
aF0.19687739509587973
aF0.0
aa(lp21
F0.03558790673315168
aF0.0929255225311501
aF0.019935630865184687
aF4.68261640701049
aa(lp22
F0.09789916033114926
aF0.0
aF0.0
aF6.386206504930395
aa(lp23
F0.17547791544700864
aF1.5836911283628154
aF0.6392737818844139
aF7.560261482809106
aa(lp24
F1.217112116673993
aF0.643964436410624
aF0.5484588736813557
aF8.404098510635132
aa(lp25
F1.6295245152152327
aF2.292867037324324
aF1.0591270214357056
aF9.26501111338905
aa(lp26
F3.2337072399163795
aF3.3223565456915702
aF0.8461361454012742
aF9.982811039397756
aa(lp27
F0.0
aF0.0
aF0.0
aF0.0
aa(lp28
F0.0
aF0.0
aF0.0
aF0.0
aa(lp29
F0.0
aF0.0
aF0.0
aF0.0
aa(lp30
F0.0
aF0.0
aF0.0
aF0.048567972096627735
aa(lp31
F0.0
aF0.6689532725465139
aF0.000671246376076753
aF0.0
aa(lp32
F0.0
aF1.5355916070605455
aF0.012217856478369083
aF0.01991768177174737
aa(lp33
F0.19588337815566642
aF1.1996512108839303
aF0.00033050755407409613
aF0.24579107723097665
aa(lp34
F-0.261460241473386
aF0.16549400628965902
aF0.1357732321356026
aF3.813515198000015
aa(lp35
F-0.14757581829469152
aF0.3934535814971265
aF-0.1179913906558
aF5.099532647386516
aa(lp36
F-0.318628362806452
aF0.04723600782633675
aF0.8705665354536936
aF5.469664367298396
aa(lp37
F-0.1642310686292169
aF6.984407698782453
aF0.8264454746854495
aF1.0458990587365595
aa(lp38
F-0.1
aF1.607976609606836
aF0.41570253556359865
aF6.06035024242925
aa(lp39
F0.7933073525807341
aF7.874480225436709
aF0.0
aF0.778951703218881
aa(lp40
F2.5265671066042765
aF3.6122096363477576
aF1.9822837362836971
aF8.70657529909738
aa(lp41
F7.996551216628828
aF9.924941392233006
aF8.610867652843318
aF8.758775512537026
aa(lp42
F0.0
aF0.0
aF0.0
aF0.0
aa(lp43
F0.0
aF0.0
aF0.0
aF0.0
aa(lp44
F0.0
aF0.0
aF0.0032637822473130813
aF0.12188111880546354
aa(lp45
F-0.016674365147945475
aF0.830172343717789
aF0.0030129477100694756
aF-0.15554460925560487
aa(lp46
F-0.1014080351719506
aF-0.12377832414453903
aF0.3165669567926258
aF-0.27355527899573606
aa(lp47
F-0.45690391372491646
aF0.8847504343238041
aF-0.1
aF-0.1
aa(lp48
F-0.2
aF1.613483113553349
aF-0.2649885860363197
aF-0.1814108770738877
aa(lp49
F-0.21800000000000003
aF1.3934314879268699
aF-0.262360241473386
aF-0.271
aa(lp50
F-0.2
aF1.5504240048416373
aF-0.1
aF-0.1
aa(lp51
F-0.1
aF1.914139039311054
aF-0.2542814344544241
aF-0.18921301931491336
aa(lp52
F-0.1
aF0.0
aF-0.1
aF1.5373942298616767
aa(lp53
F0.0
aF0.6764615715030685
aF0.021888048669952934
aF3.8411278084175215
aa(lp54
F2.738554272529359
aF2.8017541610737773
aF1.9781083094338925
aF7.654193465989182
aa(lp55
F7.027941272667076
aF8.71277360850247
aF7.202019964474954
aF7.857987622201806
aa(lp56
F0.0
aF0.0
aF0.0
aF0.0
aa(lp57
F0.0
aF0.0
aF0.0
aF0.0
aa(lp58
F-0.017606133663716533
aF0.0834900080975317
aF-0.012372950508484533
aF-0.01457990955405621
aa(lp59
F-0.15307931519254664
aF0.34566621034425665
aF-0.13716785393439487
aF-0.35927834991687135
aa(lp60
F-0.38896117890678633
aF-0.3798418089868788
aF-0.44822823061741573
aF-0.7345088450518599
aa(lp61
F-0.7870910237623217
aF-0.5788436053032866
aF-0.9110752402187099
aF-0.8190959144892727
aa(lp62
F-1.0085665140264544
aF-0.5359760785125898
aF-0.8449527487159882
aF-0.8755494859940077
aa(lp63
F-0.9015266996247661
aF-0.8999799742747795
aF-0.8017902341333372
aF-0.6311
aa(lp64
F-0.6587501973171024
aF-0.3546875044290858
aF-0.38
aF-0.4862000000000001
aa(lp65
F-0.329053436754695
aF-0.1644276013682614
aF-0.2
aF-0.293642950808092
aa(lp66
F-0.09917383771260509
aF-0.1
aF-0.2989888637124356
aF-0.1
aa(lp67
F0.0
aF0.0
aF0.0
aF2.745180545242646
aa(lp68
F6.0797990788079
aF2.953805038600085
aF1.1076413208950224
aF2.808569267583393
aa(lp69
F6.170050586813453
aF7.631678408103458
aF6.28952058324338
aF6.816881921188945
aa(lp70
F0.0
aF0.0
aF0.0
aF0.0
aa(lp71
F0.0
aF0.0
aF0.0
aF0.0
aa(lp72
F0.4087421451787405
aF-0.010824785384689187
aF-0.049565565919240835
aF-0.04393304268887745
aa(lp73
F-0.18171972742731324
aF0.10787128808416824
aF-0.14793083334741874
aF-0.38327126503376285
aa(lp74
F-0.6805143676960829
aF-0.5548688390062537
aF-0.3594952254474872
aF-0.8437025839033827
aa(lp75
F-1.4324939901158897
aF-1.3527072281988162
aF-1.2959164242529129
aF-1.4508798163680527
aa(lp76
F-1.919873103880155
aF-1.7398387179829655
aF-1.782381234557963
aF-1.9807893103538865
aa(lp77
F-1.55103931777292
aF-1.441846340264544
aF-1.5374361162615113
aF-1.4428195927330398
aa(lp78
F-0.4574542369128275
aF-0.5579527106652471
aF-0.7898583927492677
aF-0.44237783761642735
aa(lp79
F-0.2792831798449535
aF-0.1
aF-0.1
aF0.5324753529396757
aa(lp80
F-0.09999970023772314
aF-0.1
aF-0.2089994912279944
aF2.659375324588604
aa(lp81
F3.696209486025968
aF0.24226739724885685
aF0.004532652719341446
aF0.0
aa(lp82
F1.9678639428167746
aF3.2270103095604674
aF1.5815573598073933
aF6.131857613120767
aa(lp83
F5.570126069974767
aF6.896423867989817
aF5.839756313095337
aF6.089663821327757
aa(lp84
F0.0
aF0.0
aF0.0
aF0.0
aa(lp85
F0.0
aF0.0
aF0.0
aF0.0
aa(lp86
F0.8374060171715872
aF0.16674983690714246
aF0.41510179301096417
aF0.25059846152791593
aa(lp87
F0.49466663339410055
aF-0.2217910552109965
aF0.1325747766759424
aF-1.368526327676106
aa(lp88
F-0.9030011267239197
aF-0.6356653077221455
aF0.007728114971290445
aF-1.5674472274269202
aa(lp89
F-2.0072144974404478
aF-1.7792405963345193
aF-1.9705991403718457
aF-2.2523790899426954
aa(lp90
F-2.17263486654068
aF-2.3793731662339
aF-2.2180697315296665
aF-2.316730092548741
aa(lp91
F-1.7905051000230472
aF-1.7806025008013324
aF-1.9427227883882756
aF-1.7659375150798629
aa(lp92
F-0.7179778659833285
aF-0.7352392604693789
aF-0.83276661
aF-0.7821431477431313
aa(lp93
F-0.2782561327551853
aF-0.43124723922347746
aF-0.4232
aF0.47697709552819983
aa(lp94
F-0.09500346238927093
aF-0.09999999786918731
aF-0.209
aF1.8749033417051248
aa(lp95
F0.279208155232497
aF4.170202267263595
aF0.03942154897529507
aF0.9513678811250135
aa(lp96
F3.0139772416466313
aF4.2011568819603164
aF2.233606266689871
aF5.4120764703412645
aa(lp97
F4.874689257451323
aF6.249338665420548
aF5.287472385795383
aF5.480972492267078
aa(lp98
F0.0
aF0.0
aF0.0
aF0.0
aa(lp99
F0.0
aF0.0
aF0.0
aF0.0
aa(lp100
F1.0458089733718001
aF0.5384866696677507
aF0.7798200938713652
aF0.5364916402364948
aa(lp101
F0.8624734106169082
aF0.1902998721158106
aF0.5053090677931731
aF-1.1560391054102377
aa(lp102
F-0.3890640877648155
aF-1.1849153121179496
aF0.5319749010349765
aF-1.6204711783384522
aa(lp103
F-1.6954917034755776
aF-1.5362765597757928
aF-0.6291704212948439
aF-1.9070881267146125
aa(lp104
F-1.7962420231467242
aF-1.922916493516599
aF-2.0746757999183565
aF-1.8964147179015192
aa(lp105
F-1.3632681651391165
aF-1.36737682157222
aF-1.3345531761694527
aF-1.235255342024768
aa(lp106
F-0.5506536301102314
aF-0.6587810178571128
aF-0.6762
aF-0.12490253106308025
aa(lp107
F0.03502983749160554
aF-0.29000000000000004
aF-0.29384365000915486
aF0.7915535010315822
aa(lp108
F0.37866292076622876
aF-0.061799388436412875
aF-0.09573973106156124
aF2.632976628538546
aa(lp109
F0.40105272975197775
aF3.7430304219239185
aF0.0
aF0.0
aa(lp110
F1.7716214713225293
aF5.017317301597391
aF2.4714570763057826
aF2.9957320495097477
aa(lp111
F4.337432509196316
aF5.498127546203073
aF4.680002811120026
aF4.871961500470749
aa(lp112
F0.0
aF0.0
aF0.0
aF0.0
aa(lp113
F0.0
aF0.0
aF0.0
aF0.0
aa(lp114
F1.1453640877908216
aF0.6725686892304567
aF0.9267708891484604
aF0.852396111784371
aa(lp115
F1.264971790896182
aF0.44446292889545963
aF0.8638366751253066
aF0.16023761648371637
aa(lp116
F0.3110961615087462
aF-0.4487363577596124
aF0.7911540911071103
aF-1.2233471748634392
aa(lp117
F0.09118984436508379
aF-1.3722996131993512
aF-1.020883949033096
aF-0.9668553457187028
aa(lp118
F0.06122022745830681
aF-1.1415157285345252
aF-0.8471696398742263
aF-1.1026023805613954
aa(lp119
F0.4098126995062899
aF-0.68682
aF-0.75359
aF-0.576029
aa(lp120
F-0.2159850473633466
aF-0.28900000000000003
aF-0.41339
aF1.4909821038274418
aa(lp121
F-0.2953155727248444
aF-0.04381096335355744
aF-0.2241748602858824
aF1.8605335274746153
aa(lp122
F0.0
aF0.5487147660994776
aF0.42036298949134915
aF3.5476563424363112
aa(lp123
F3.2698749278851196
aF1.6115859775113812
aF0.7485354301632451
aF2.6441197735496185
aa(lp124
F3.6137566102102103
aF4.688458303455694
aF3.3573764854505566
aF4.1784291044978294
aa(lp125
F3.8186129881842237
aF4.815854787461509
aF4.269808664994371
aF4.22322296296594
aa(lp126
F0.0
aF0.0
aF0.0
aF0.0
aa(lp127
F0.0
aF0.0
aF0.0
aF0.0
aa(lp128
F0.6462996339871185
aF0.5363057305708873
aF0.5929033200863038
aF1.2673339232960543
aa(lp129
F1.4137438827974618
aF0.8312297855542434
aF1.108542779994484
aF0.8368347225956977
aa(lp130
F1.4180224382021098
aF-0.10165376498348853
aF1.0212325972161767
aF0.24887820323722581
aa(lp131
F1.1833086565354005
aF-0.6562086278330734
aF-0.0989131436827461
aF-0.16839035900742513
aa(lp132
F1.6897459225165543
aF-0.4145363441041028
aF0.1990007098677994
aF0.20987186224891638
aa(lp133
F2.0904298384455817
aF-0.48730907398736245
aF-0.09771940499469929
aF0.1850668400942742
aa(lp134
F2.204120219025852
aF-0.6299134254097608
aF0.229243454234481
aF0.4713602845741198
aa(lp135
F1.3027933056996248
aF0.13162580130012053
aF0.013469526562476325
aF2.388573786650716
aa(lp136
F0.9217788604969461
aF2.970506018854483
aF1.187133013462528
aF1.7369285606819818
aa(lp137
F3.1397549370410256
aF2.670685405097725
aF2.4349024507867156
aF2.9012265548261573
aa(lp138
F3.363587364875837
aF4.289756054523272
aF3.1303728173082956
aF3.764344584014358
aa(lp139
F3.402643511031293
aF4.345778712932692
aF3.812254949748401
aF3.7523296919982365
aa(lp140
F0.0
aF0.0
aF0.0
aF0.0
aa(lp141
F0.0
aF0.0
aF0.0
aF0.0
aa(lp142
F1.4321261373601617
aF0.19764433223249575
aF0.41374070020804304
aF0.1426670409574954
aa(lp143
F1.5849529422531403
aF1.0855220000188832
aF1.0084130100933149
aF1.206122874462247
aa(lp144
F1.524402010425164
aF0.6823050159076055
aF1.4007258257110449
aF1.6280381317735455
aa(lp145
F1.7936410230078894
aF0.3339186737735255
aF1.0935843834075587
aF1.4415368830135848
aa(lp146
F2.023005797945566
aF0.48019371579423836
aF1.2748413894001027
aF1.6287479211907454
aa(lp147
F1.7601519672913726
aF0.8975907126394692
aF1.7349130355069244
aF2.2666073439588685
aa(lp148
F2.1377339729397806
aF1.3215251389322749
aF2.1196409499276423
aF2.6178203275681353
aa(lp149
F2.4059140451862295
aF2.0157688604516215
aF2.3574824207252982
aF2.836030467247519
aa(lp150
F2.6496822177881247
aF2.7766370946149084
aF2.737122263512445
aF3.1402434689645817
aa(lp151
F2.960835347209453
aF3.0714395493193853
aF2.947886210781346
aF3.406299804803226
aa(lp152
F3.0769041815230738
aF3.8269580604799396
aF3.2101709465257455
aF3.362421849337724
aa(lp153
F2.9739051610709892
aF3.8069239729964863
aF3.3837893172081754
aF3.295832125899653
aa(lp154
F0.0
aF0.0
aF0.0
aF0.0
aa(lp155
F0.0
aF0.0
aF0.0
aF0.0
aa(lp156
F1.3256335667756254
aF1.20848557332433
aF1.3961814159036117
aF1.5705344092147013
aa(lp157
F1.2495998553376984
aF1.0781048745184947
aF1.1989983141910543
aF1.6782906691000452
aa(lp158
F1.514355561916455
aF1.4883058986598698
aF1.5577212786369838
aF1.808250744576778
aa(lp159
F1.6849554707704395
aF1.6759625765044213
aF1.6709428072922825
aF1.9473862070919108
aa(lp160
F1.778186840960461
aF1.9414924608059507
aF1.8651903708640871
aF2.1173724783226087
aa(lp161
F1.8633423536471474
aF2.1754850936776626
aF1.9876501232477344
aF2.309434072953714
aa(lp162
F1.8897705931318607
aF2.3351955174563503
aF2.115033928733461
aF2.508893611788704
aa(lp163
F1.9432281234818731
aF2.6828665769942326
aF2.1733666909346234
aF2.6025086633286536
aa(lp164
F2.2245519934959677
aF2.9702639727360673
aF2.2105133881724535
aF2.676055622544502
aa(lp165
F2.0087329428278005
aF3.184839541394748
aF2.0241177488520576
aF2.421877063222856
aa(lp166
F0.895875347013185
aF3.3131497487640056
aF1.7508013161680196
aF1.3864586279106543
aa(lp167
F0.9547991115938661
aF3.3464578939918064
aF1.4940313597259003
aF0.8544866507282614
aa(lp168
F0.0
aF0.0
aF0.0
aF0.0
aa(lp169
F0.0
aF0.0
aF0.0
aF0.0
aa(lp170
F1.2512615243585148
aF1.3490874608449837
aF1.3230464033026619
aF1.4561716413468653
aa(lp171
F1.3540014847952642
aF1.413389905375346
aF1.2447214194889011
aF1.6004539363147414
aa(lp172
F1.4289328628211921
aF1.5553817734115225
aF1.3623240036136228
aF1.6938096841471129
aa(lp173
F1.4951800793064451
aF1.8388842638300265
aF1.5353838457547428
aF1.5391301628727292
aa(lp174
F1.6120720629852245
aF1.9843665750400088
aF1.4824626862607089
aF1.1682047960285113
aa(lp175
F1.031482554811861
aF0.8799906120189284
aF1.0156507588312877
aF1.8191221871781376
aa(lp176
F1.055328376499166
aF2.2103403783969746
aF1.0687628803497498
aF1.3617338339811513
aa(lp177
F0.19939795565045815
aF1.4821114033464824
aF1.8394976911264524
aF1.7500392724587641
aa(lp178
F0.6375224714825374
aF2.6866071510745835
aF0.5535253750931413
aF0.16858473245632388
aa(lp179
F0.6663313768184056
aF2.7362279694506206
aF0.0
aF0.4035915907631369
aa(lp180
F0.0
aF2.8583725586536652
aF0.24443398074145475
aF0.0
aa(lp181
F0.1190636712963463
aF2.6816313368779925
aF0.191239644807418
aF0.0
aa(lp182
F0.0
aF0.0
aF0.0
aF0.0
aa(lp183
F0.0
aF0.0
aF0.0
aF0.0
aa(lp184
F0.0
aF0.0
aF0.0
aF0.0
aa(lp185
F0.0
aF0.0
aF0.0
aF0.0
aa(lp186
F0.0
aF0.0
aF0.0
aF0.0
aa(lp187
F0.0
aF0.0
aF0.0
aF0.0
aa(lp188
F0.0
aF0.0
aF0.0
aF0.0
aa(lp189
F0.0
aF0.0
aF0.0
aF0.0
aa(lp190
F0.0
aF0.0
aF0.0
aF0.0
aa(lp191
F0.0
aF0.0
aF0.0
aF0.0
aa(lp192
F0.0
aF0.0
aF0.0
aF0.0
aa(lp193
F0.0
aF0.0
aF0.0
aF0.0
aa(lp194
F0.0
aF0.0
aF0.0
aF0.0
aa(lp195
F0.0
aF0.0
aF0.0
aF0.0
aa(lp196
F0.0
aF0.0
aF0.0
aF0.0
aa.