(lp0
(lp1
F0.0
aF0.0
aF0.0
aF0.0
aa(lp2
F0.0
aF0.0
aF0.0
aF0.0
aa(lp3
F0.0
aF0.0
aF0.0
aF0.0
aa(lp4
F0.0
aF0.0
aF0.0
aF0.0
aa(lp5
F0.0
aF0.0
aF0.0
aF0.0
aa(lp6
F0.0
aF0.0
aF0.0
aF0.0
aa(lp7
F0.0
aF0.0
aF0.0
aF0.0
aa(lp8
F0.0
aF0.0
aF0.0
aF0.0
aa(lp9
F0.0
aF0.0
aF0.0
aF0.0
aa(lp10
F0.0
aF0.0
aF0.0
aF0.0
aa(lp11
F0.0
aF0.0
aF0.0
aF0.0
aa(lp12
F0.0
aF0.0
aF0.0
aF0.0
aa(lp13
F0.0
aF0.0
aF0.0
aF0.0
aa(lp14
F0.0
aF0.0
aF0.0
aF0.0
aa(lp15
F0.0
aF0.0
aF0.0
aF0.0
aa(lp16
F0.0
aF1.4194278103942144e-05
aF5.4178643288713356e-05
aF0.004573080831010248
aa(lp17
F0.0
aF7.250571730349539e-06
aF0.0005083292256046152
aF0.0008828035106433833
aa(lp18
F0.045168989302175194
aF0.0
aF0.00039378238853271963
aF0.0
aa(lp19
F0.4190804394972977
aF2.22297422122566e-05
aF0.0027339942972878506
aF0.0
aa(lp20
F0.0
aF0.0
aF0.0
aF0.4273941497736081
aa(lp21
F0.1567229862610992
aF0.18625708715895792
aF0.006213731033646341
aF2.9527941400902344
aa(lp22
F0.262292033442506
aF0.1833801701122731
aF2.176117289341404
aF0.8970979594448688
aa(lp23
F0.399153560625232
aF0.013566217006345499
aF0.09285614416376373
aF5.132761526766102
aa(lp24
F0.0
aF0.5014654562539971
aF0.8397916287757716
aF6.317121454623288
aa(lp25
F7.094313367546898
aF1.5241072808788343
aF0.4293516449819845
aF1.0
aa(lp26
F0.0
aF0.7332281830033343
aF1.0
aF9.578046097177142
aa(lp27
F0.0
aF0.0
aF0.0
aF0.0
aa(lp28
F0.0
aF0.0
aF0.0
aF0.0
aa(lp29
F0.0
aF0.0
aF0.0
aF0.0
aa(lp30
F0.0
aF8.179841607618011e-05
aF0.00033006120224014616
aF0.0072195475747212
aa(lp31
F-2.3847781735220035e-06
aF0.0
aF0.003460982388728805
aF-0.0022966995061729444
aa(lp32
F-0.1899902830100406
aF0.07466874712754681
aF0.0
aF3.9138146196022767e-05
aa(lp33
F-0.4818679817243459
aF-0.10797893279644682
aF-0.11469454129023254
aF0.47750325979763586
aa(lp34
F-0.290539
aF-0.049729469674228144
aF0.02444179597247624
aF1.0855828937113596
aa(lp35
F-0.38905355584736845
aF1.5119074863728663
aF0.01545885564370038
aF0.05799861393383204
aa(lp36
F-0.20041113964961133
aF2.1020989359529563
aF0.0
aF0.0
aa(lp37
F-0.1883753799124974
aF0.0
aF0.0
aF2.366212067235607
aa(lp38
F-0.054104892849658186
aF3.6950938931783615
aF0.0
aF0.0
aa(lp39
F0.0
aF1.2367924084360742
aF1.1994245141202255
aF7.270638750412538
aa(lp40
F3.3463130035051853
aF2.871237737401821
aF2.882495925174523
aF8.772897034097253
aa(lp41
F8.087088139819224
aF9.771964310467963
aF8.666956721288715
aF8.948556079696562
aa(lp42
F0.0
aF0.0
aF0.0
aF0.0
aa(lp43
F0.0
aF0.0
aF0.0
aF0.0
aa(lp44
F-7.029266071845515e-06
aF0.0009467427517835514
aF0.0
aF0.0
aa(lp45
F-0.19169490618943108
aF-0.1180183664178398
aF-0.07666074512175666
aF-0.18842301722409616
aa(lp46
F-0.2542822655544694
aF-0.047627655072481345
aF-0.13427389094564177
aF-0.1
aa(lp47
F-0.2391652294922656
aF0.17779688337046823
aF-0.33377366566303446
aF-0.2859022306650229
aa(lp48
F-0.6107303504969428
aF0.22438196587486142
aF-0.45094351289800993
aF-0.43015070820341883
aa(lp49
F-0.22610000000000002
aF0.10921108310276044
aF-0.30086917334271057
aF-0.30261147791582305
aa(lp50
F-0.21800000000000003
aF0.15353279627141925
aF-0.279092487000457
aF-0.23760379279890576
aa(lp51
F-0.1
aF0.4388363095295079
aF-0.1
aF-0.07154503165833331
aa(lp52
F0.0
aF0.0
aF0.0
aF2.159176382151506
aa(lp53
F0.0
aF0.0
aF-0.1
aF3.013555341666004
aa(lp54
F2.6240413218860787
aF3.862600468771416
aF1.8503681337753854
aF7.630704038480991
aa(lp55
F6.979949548438782
aF8.562660020903646
aF7.454269661095291
aF7.757933320253772
aa(lp56
F0.0
aF0.0
aF0.0
aF0.0
aa(lp57
F0.0
aF0.0
aF0.0
aF0.0
aa(lp58
F-0.024999052319330545
aF-0.02844858889483308
aF-0.026499109479624833
aF-0.06435387254480515
aa(lp59
F-0.20528229409882107
aF-0.07958010919890171
aF-0.1458153972004419
aF-0.24094830669033823
aa(lp60
F-0.5671643225073851
aF-0.4946851245434104
aF-0.329289119578871
aF-0.5425043258447001
aa(lp61
F-1.0176733257066448
aF-0.8896982808641756
aF-0.91019218546958
aF-0.897633567977466
aa(lp62
F-0.8771671397290566
aF-0.7114599022532987
aF-0.8185010627219587
aF-1.0345326577579605
aa(lp63
F-0.646239
aF-0.843940426442918
aF-0.67262249
aF-0.6915252216293111
aa(lp64
F-1.03974446326391
aF-0.6495594687091308
aF-0.8684303334738978
aF-0.65612
aa(lp65
F-0.18185074168744392
aF-0.1
aF-0.2
aF-0.05163328976778166
aa(lp66
F-0.01430307992423551
aF-0.0390054364996202
aF0.0
aF0.06404901499350352
aa(lp67
F0.8704387926677037
aF0.0
aF-0.09
aF0.0
aa(lp68
F5.788210047832609
aF2.467750354980498
aF0.0
aF2.7655509729641836
aa(lp69
F6.227743680841609
aF7.787579334428429
aF6.1927715820943385
aF6.79323889113576
aa(lp70
F0.0
aF0.0
aF0.0
aF0.0
aa(lp71
F0.0
aF0.0
aF0.0
aF0.0
aa(lp72
F0.6372161317404301
aF-0.0345193016301848
aF-0.006963238893139448
aF-0.03215579297919524
aa(lp73
F-0.20405551772524536
aF-0.25128334410728587
aF0.42829659223371397
aF-0.4019541119626012
aa(lp74
F-0.8158561001497607
aF-0.7053967769895747
aF-0.03626186657736997
aF-1.1138314698456406
aa(lp75
F-1.8065644568288277
aF-1.626141868277859
aF-1.6223700175725233
aF-1.6767440190124288
aa(lp76
F-2.06977165734664
aF-1.8834830276921373
aF-2.0043865204913036
aF-1.926174074640209
aa(lp77
F-1.1871072828652434
aF-1.0791127782054661
aF-1.1869897138386527
aF-1.0961175818440432
aa(lp78
F-0.964442
aF-1.0777032873818728
aF-1.1374227136723616
aF-0.7911158958798932
aa(lp79
F-0.2
aF-0.28
aF-0.4669899185817954
aF0.9008268899058998
aa(lp80
F-0.1
aF0.0
aF-0.2
aF2.185033054599186
aa(lp81
F0.5146004690156548
aF0.0
aF0.2602316434064048
aF4.791905014635874
aa(lp82
F2.305217449245573
aF2.0543610796319167
aF1.8183991898291805
aF6.079274914002577
aa(lp83
F5.431857585236213
aF6.909488203951599
aF5.7697972680756475
aF6.014597990954055
aa(lp84
F0.0
aF0.0
aF0.0
aF0.0
aa(lp85
F0.0
aF0.0
aF0.0
aF0.0
aa(lp86
F0.9113689704985064
aF0.4435065422974214
aF0.5528162890492815
aF0.2018270015632467
aa(lp87
F0.5825953497874398
aF-0.2768508458523532
aF0.09637029499623329
aF-1.132224324005191
aa(lp88
F-1.1310158463291669
aF-1.0768716704941568
aF0.07291527159833538
aF-1.3926210429897705
aa(lp89
F-2.196270390878877
aF-2.128600178498404
aF-1.3886085883872805
aF-2.327111611751376
aa(lp90
F-2.216196148335424
aF-2.24082406475689
aF-2.1676655224024013
aF-2.1812727870603847
aa(lp91
F-1.6975351958202016
aF-1.6378030050981125
aF-1.5924749090973351
aF-1.5868022892330071
aa(lp92
F-0.9901943701632678
aF-1.1077628983090246
aF-0.8368327200000001
aF-0.9846465833349414
aa(lp93
F-0.271
aF-0.2
aF-0.21800000000000003
aF1.0959327251416542
aa(lp94
F0.0
aF-0.09070041411448185
aF0.0
aF1.627750638239609
aa(lp95
F0.055194241997806016
aF0.8164863153146507
aF0.34253117805907174
aF3.8029612086579605
aa(lp96
F4.602093555328751
aF2.1404512106164804
aF1.016624720632953
aF2.7966110587605817
aa(lp97
F4.904070472301892
aF6.156325027709571
aF4.876913248400421
aF5.367828276523696
aa(lp98
F0.0
aF0.0
aF0.0
aF0.0
aa(lp99
F0.0
aF0.0
aF0.0
aF0.0
aa(lp100
F1.1766528955438478
aF0.6228841357354342
aF0.930159716402768
aF0.6467930000929223
aa(lp101
F0.8591887744213107
aF-0.009020794475721114
aF0.561990284348127
aF-0.8544391991403957
aa(lp102
F0.06128711002883708
aF-1.159761903908124
aF0.5612092616684815
aF-1.6615046135619025
aa(lp103
F-1.4978844966186764
aF-1.7321061495747476
aF-0.943388332474238
aF-2.1408020247102924
aa(lp104
F-1.7555317011507412
aF-2.134638499267331
aF-1.9193635966853109
aF-2.0113611161426186
aa(lp105
F-1.2524261399599441
aF-1.446151153728719
aF-1.389218329360669
aF-1.4531630927658086
aa(lp106
F-1.1145118827141978
aF-1.0348456733543272
aF-0.93459
aF-0.6376657085558717
aa(lp107
F0.4119380559192004
aF-0.16293372838689255
aF-0.2171
aF-0.14103821127142863
aa(lp108
F1.4783249062174804
aF-0.1183037559906217
aF-0.1856900891833496
aF0.0
aa(lp109
F0.0
aF0.4105361342147378
aF0.0
aF4.355922940881413
aa(lp110
F3.902810624003662
aF4.360036780982567
aF3.7556958222277643
aF4.792906064337062
aa(lp111
F4.2505735682388615
aF5.473984635664211
aF4.51227244122715
aF4.7561951526320385
aa(lp112
F0.0
aF0.0
aF0.0
aF0.0
aa(lp113
F0.0
aF0.0
aF0.0
aF0.0
aa(lp114
F1.349461733163136
aF0.8781147955632898
aF1.0281470998927396
aF0.9354473012003737
aa(lp115
F1.4025237967769346
aF0.5342420189072494
aF1.0718543887677605
aF0.022512247384019538
aa(lp116
F0.7933262128547829
aF-0.5697604370108907
aF0.5418744819749522
aF-0.9052996731357958
aa(lp117
F0.32483555656215196
aF-1.3533697465655852
aF-0.6378846535873209
aF-1.2092682176746057
aa(lp118
F0.5157728957120701
aF-1.5688106773509476
aF-0.8645209854699472
aF-0.9370310621216272
aa(lp119
F0.8943614850378292
aF-1.2683055216102943
aF-0.6823247336249321
aF-0.5625248032318741
aa(lp120
F-0.23233478502717067
aF-0.2
aF-0.21800000000000003
aF1.679117640827203
aa(lp121
F-0.0931703110422158
aF-0.1
aF-0.19
aF2.1717214154719957
aa(lp122
F1.0124991604953912
aF0.27287953251739255
aF0.5892686779654017
aF3.711283707115489
aa(lp123
F3.4899448457120843
aF2.997758755692722
aF2.033681960020803
aF2.719325608843553
aa(lp124
F3.755159152253934
aF4.474411080202774
aF3.739145330082856
aF4.231623930473864
aa(lp125
F3.831813275207443
aF4.8612014257473986
aF4.198719729636804
aF4.2296148142367365
aa(lp126
F0.0
aF0.0
aF0.0
aF0.0
aa(lp127
F0.0
aF0.0
aF0.0
aF0.0
aa(lp128
F1.3578682202841834
aF0.48394342303685123
aF0.8921163032699824
aF0.9265347009634985
aa(lp129
F1.5222762430618553
aF0.8617828553479764
aF1.1030943527767867
aF0.5397421854850154
aa(lp130
F1.5415703327385422
aF0.23275133389799513
aF1.3092489484212757
aF0.5900814377664457
aa(lp131
F1.7783188032686368
aF-0.4578815607217113
aF0.36679605180495484
aF0.07659006308648987
aa(lp132
F1.576573335904547
aF-1.1187630145226404
aF-0.1444712211253707
aF0.10541823505281729
aa(lp133
F2.1798142626201074
aF-0.22905870405541562
aF0.15447575333699348
aF0.2856836486876932
aa(lp134
F2.590854014621701
aF0.04646818318654575
aF0.02265005035068221
aF0.5284987469045006
aa(lp135
F0.5379919919504703
aF0.5211439776536592
aF-0.009013411950822975
aF3.164451607311814
aa(lp136
F2.5357823324273117
aF2.809301415875002
aF1.845422593948712
aF3.3343651149982385
aa(lp137
F3.2063541118106276
aF3.734028808653602
aF3.210895492693526
aF3.5851274219964546
aa(lp138
F3.397905364067588
aF4.144289889834854
aF3.474485641350691
aF3.778944806968255
aa(lp139
F3.3984944263338237
aF4.245285224195892
aF3.7848317207219244
aF3.763101400343546
aa(lp140
F0.0
aF0.0
aF0.0
aF0.0
aa(lp141
F0.0
aF0.0
aF0.0
aF0.0
aa(lp142
F1.3906217238986733
aF0.8577026255570743
aF0.6590741225100677
aF0.9223697626462922
aa(lp143
F1.4639917883202642
aF1.3263473509038892
aF1.0381529530709135
aF1.728002619054392
aa(lp144
F1.5112216141773442
aF1.1766134659247
aF1.5356240876298624
aF1.8147842402397991
aa(lp145
F1.579366513448189
aF0.774482120153601
aF1.552010076135196
aF1.8499163502695444
aa(lp146
F1.8530534331658357
aF0.7679999619692869
aF1.7957194112547241
aF2.252143663057829
aa(lp147
F2.1181499747699615
aF1.2425572385545827
aF1.9739247280772383
aF2.4655272209655137
aa(lp148
F2.3286449824910216
aF1.5759668446258694
aF2.148853733139759
aF2.621798951759262
aa(lp149
F2.603152862824621
aF2.606249690779466
aF2.52330075438223
aF2.885116314472542
aa(lp150
F2.7519167685107315
aF3.0265961052487693
aF2.745611270719367
aF3.174033038225654
aa(lp151
F2.794928743860525
aF3.4766196340801425
aF3.005086176718781
aF3.3057778632697716
aa(lp152
F2.7123717195659722
aF3.7236462434019475
aF3.1424463078781
aF3.291041900724473
aa(lp153
F2.1567334645443608
aF3.6527718514650065
aF2.8982270695998023
aF3.0369695051195835
aa(lp154
F0.0
aF0.0
aF0.0
aF0.0
aa(lp155
F0.0
aF0.0
aF0.0
aF0.0
aa(lp156
F1.35853085455694
aF1.3049752374126717
aF1.367231926376249
aF1.4913173051038937
aa(lp157
F1.471254196353256
aF1.5753263444766887
aF1.3779663814740695
aF1.5326107655448475
aa(lp158
F1.6074979826740736
aF1.7291447548771066
aF1.4831201276858232
aF1.6090781172503694
aa(lp159
F1.7380380004691345
aF1.084011457393781
aF1.103536591695996
aF1.35596697052587
aa(lp160
F1.8667373092889803
aF1.2567673721837704
aF0.6712947255164106
aF1.0157798116243393
aa(lp161
F1.416011122463884
aF1.167135980919513
aF1.300854820076077
aF2.315273431798155
aa(lp162
F2.1051285697156015
aF2.1809160780537673
aF1.8978060528287397
aF2.4018708471474293
aa(lp163
F2.209801716803355
aF2.591485659506527
aF2.3832084473976938
aF2.6483901951436963
aa(lp164
F1.9662267865757674
aF2.9016285205547607
aF2.3520456008697668
aF2.5728928035887373
aa(lp165
F1.9451037967069236
aF3.225763841506401
aF1.9448816023422417
aF2.232278986211286
aa(lp166
F1.257117034740597
aF3.269562611820967
aF2.439477213122645
aF0.9444836525186552
aa(lp167
F1.7644993495757095
aF3.3114694777635174
aF1.161654734077601
aF1.9935681593174925
aa(lp168
F0.0
aF0.0
aF0.0
aF0.0
aa(lp169
F0.0
aF0.0
aF0.0
aF0.0
aa(lp170
F1.2732888728012366
aF1.3755791130535453
aF1.3514257004622565
aF1.488237551650592
aa(lp171
F1.287389007771873
aF1.3826876532752292
aF1.2308408465479235
aF1.6095791693636106
aa(lp172
F1.512499294126243
aF1.5084065776533484
aF1.4882485685212512
aF1.733785875449888
aa(lp173
F1.6341016417830059
aF1.5778164540036348
aF1.6370799070367135
aF1.8301381822055016
aa(lp174
F1.7793644271228912
aF1.82675641685874
aF1.7280823378441192
aF1.9983487336722787
aa(lp175
F1.9755139561806894
aF2.1434113250811504
aF1.8890503562542198
aF2.123744960501626
aa(lp176
F2.0900443168438647
aF2.321829714183028
aF2.0329387182671828
aF2.12581640446889
aa(lp177
F2.0684564788392508
aF2.5258680461745926
aF2.0674512184106812
aF1.7794806798732814
aa(lp178
F0.40326240535872293
aF0.5676162276793864
aF0.9348709606383451
aF2.4024716174271634
aa(lp179
F0.9517242615888694
aF1.3301245316189267
aF0.6007362329915481
aF2.5792270357673397
aa(lp180
F0.7225844915035851
aF2.873072901108801
aF1.2360219112949702
aF1.1648791013017277
aa(lp181
F0.35709931024260877
aF2.9664380778428283
aF0.6149195282193439
aF0.2569006522855107
aa(lp182
F0.0
aF0.0
aF0.0
aF0.0
aa(lp183
F0.0
aF0.0
aF0.0
aF0.0
aa(lp184
F0.0
aF0.0
aF0.0
aF0.0
aa(lp185
F0.0
aF0.0
aF0.0
aF0.0
aa(lp186
F0.0
aF0.0
aF0.0
aF0.0
aa(lp187
F0.0
aF0.0
aF0.0
aF0.0
aa(lp188
F0.0
aF0.0
aF0.0
aF0.0
aa(lp189
F0.0
aF0.0
aF0.0
aF0.0
aa(lp190
F0.0
aF0.0
aF0.0
aF0.0
aa(lp191
F0.0
aF0.0
aF0.0
aF0.0
aa(lp192
F0.0
aF0.0
aF0.0
aF0.0
aa(lp193
F0.0
aF0.0
aF0.0
aF0.0
aa(lp194
F0.0
aF0.0
aF0.0
aF0.0
aa(lp195
F0.0
aF0.0
aF0.0
aF0.0
aa(lp196
F0.0
aF0.0
aF0.0
aF0.0
aa.