(lp0
(lp1
F0.0
aF0.0
aF0.0
aF0.0
aa(lp2
F0.0
aF0.0
aF0.0
aF0.0
aa(lp3
F0.0
aF0.0
aF0.0
aF0.0
aa(lp4
F0.0
aF0.0
aF0.0
aF0.0
aa(lp5
F0.0
aF0.0
aF0.0
aF0.0
aa(lp6
F0.0
aF0.0
aF0.0
aF0.0
aa(lp7
F0.0
aF0.0
aF0.0
aF0.0
aa(lp8
F0.0
aF0.0
aF0.0
aF0.0
aa(lp9
F0.0
aF0.0
aF0.0
aF0.0
aa(lp10
F0.0
aF0.0
aF0.0
aF0.0
aa(lp11
F0.0
aF0.0
aF0.0
aF0.0
aa(lp12
F0.0
aF0.0
aF0.0
aF0.0
aa(lp13
F0.0
aF0.0
aF0.0
aF0.0
aa(lp14
F0.0
aF0.0
aF0.0
aF0.0
aa(lp15
F0.0
aF0.0
aF0.0
aF0.0
aa(lp16
F0.15219378730068897
aF0.0
aF0.0
aF0.0
aa(lp17
F0.0
aF0.0
aF0.0
aF0.0
aa(lp18
F0.1248421810930025
aF0.0
aF0.0
aF0.0
aa(lp19
F0.6076045217967383
aF0.0
aF0.0
aF0.0
aa(lp20
F1.6263806349075391
aF0.00024794643575247157
aF0.0
aF3.4762716981301414e-05
aa(lp21
F0.0
aF0.0
aF0.23105621596993076
aF0.0
aa(lp22
F0.525632228030387
aF1.4118895895102717
aF0.015230045567502772
aF0.04579157927735711
aa(lp23
F2.64209127001769
aF0.0
aF0.0
aF0.8486033306859743
aa(lp24
F0.7038534549305444
aF0.5448051065109057
aF0.8916552070513557
aF8.425003042293241
aa(lp25
F0.32274360029522375
aF1.5978338028304964
aF1.7126468256506397
aF9.259757318959636
aa(lp26
F1.8294525923473142
aF0.8924794228653039
aF2.2479459026120927
aF9.904832332183801
aa(lp27
F0.0
aF0.0
aF0.0
aF0.0
aa(lp28
F0.0
aF0.0
aF0.0
aF0.0
aa(lp29
F0.0
aF0.0
aF0.0
aF0.0
aa(lp30
F0.010939684370360012
aF0.0
aF0.5381066319821859
aF0.0
aa(lp31
F0.10512971641822388
aF0.0
aF0.0
aF2.4602949933630756
aa(lp32
F0.21020370434491895
aF0.01457787313465877
aF0.0007007357867910946
aF3.2547596671243575
aa(lp33
F-0.13921256341706753
aF0.04515817820700507
aF1.2564494742589647
aF3.827239333327045
aa(lp34
F-0.16752797039037998
aF0.0
aF0.12684163315769661
aF4.416774499154291
aa(lp35
F-0.43272296275873595
aF0.29326310390517096
aF0.619715228472747
aF5.196582027374592
aa(lp36
F-0.00981302550836799
aF0.06800208293662198
aF0.6038678641057844
aF5.557693505578266
aa(lp37
F-0.24281852304094578
aF1.04981705462379
aF0.09225506881333191
aF5.954702773983657
aa(lp38
F0.05424131069325712
aF7.896221112713106
aF0.6587713225966763
aF1.3755810776968278
aa(lp39
F0.0
aF8.449625699121512
aF0.0
aF1.4289767973778913
aa(lp40
F2.6103593762024446
aF9.30983893881368
aF1.375450512599342
aF1.642151159499472
aa(lp41
F8.055653365368435
aF9.874635072852504
aF8.775583207451758
aF8.852517438674765
aa(lp42
F0.0
aF0.0
aF0.0
aF0.0
aa(lp43
F0.0
aF0.0
aF0.0
aF0.0
aa(lp44
F-1.1317169040727271e-05
aF0.9626905646961313
aF-9.093995407233773e-05
aF0.0
aa(lp45
F-0.01884117862751148
aF1.6536915588924228
aF0.0475559467373189
aF-0.0822068939763393
aa(lp46
F-0.22496389876421805
aF1.9234328195859758
aF0.0
aF-0.2648796403667228
aa(lp47
F-0.2
aF1.3881157127118573
aF-0.2098608506702002
aF-0.1
aa(lp48
F-0.21800000000000003
aF1.7065402556708271
aF-0.10558356266513769
aF-0.19
aa(lp49
F-0.2
aF2.8711453165377523
aF-0.1
aF-0.1
aa(lp50
F-0.2
aF2.249697965970307
aF-0.19
aF-0.1
aa(lp51
F-0.1
aF3.8671608266072686
aF-0.19
aF-0.08526356247194879
aa(lp52
F-0.1
aF0.0
aF0.0022513588103302284
aF1.2744814688083772
aa(lp53
F3.048577105476826
aF0.0
aF0.06199288653083486
aF0.0
aa(lp54
F2.735376203896789
aF1.6145188332807767
aF1.8207647480942508
aF7.572793840313676
aa(lp55
F7.049715554718771
aF8.753907100409899
aF7.1664066202445795
aF7.979581564052088
aa(lp56
F0.0
aF0.0
aF0.0
aF0.0
aa(lp57
F0.0
aF0.0
aF0.0
aF0.0
aa(lp58
F0.059856842944087725
aF0.5117822680033537
aF0.003654690735047976
aF0.01524137170816448
aa(lp59
F-0.11117937515593508
aF1.0980683214931193
aF-0.11501071859380937
aF-0.6644741842925734
aa(lp60
F-0.3888981569316847
aF0.1332167974418459
aF-0.3424174586652442
aF-0.3154351112248572
aa(lp61
F-0.6337006667966681
aF-0.4068820409713151
aF-0.8459674595001316
aF-0.7375686186527111
aa(lp62
F-0.9923862861840493
aF-0.6015873389511354
aF-0.5766363615392047
aF-0.7311621268852133
aa(lp63
F-0.4783112677595226
aF-0.18421905557897378
aF-0.7845458334567894
aF-0.5675421268852133
aa(lp64
F-0.6071858315783543
aF-0.6039730934368663
aF-0.4498751665056411
aF-0.5100138819293647
aa(lp65
F-0.2
aF-0.34451063763782147
aF-0.20891577561768876
aF-0.16028406277998242
aa(lp66
F-0.14569612190368286
aF0.0
aF0.0
aF0.5619747569377151
aa(lp67
F3.956489804118
aF-0.0932317329363466
aF0.0
aF0.0
aa(lp68
F5.643045277035095
aF5.196927160654331
aF2.613499059897272
aF5.070964657406511
aa(lp69
F6.337551025325479
aF7.7722637201374365
aF6.730034922773137
aF6.980030481536115
aa(lp70
F0.0
aF0.0
aF0.0
aF0.0
aa(lp71
F0.0
aF0.0
aF0.0
aF0.0
aa(lp72
F-0.023454845826320486
aF0.5856446047172427
aF0.01679278942251177
aF-0.02151689081754702
aa(lp73
F-0.4900310950807585
aF-0.24759586785620616
aF0.25490892459603526
aF-0.6553865644981745
aa(lp74
F-0.4919189609479976
aF-0.5888540632192368
aF-0.11817478902625683
aF-1.1787129660483424
aa(lp75
F-1.3707660990956556
aF-1.2746383721108419
aF-0.8461328512000227
aF-1.2950848861571573
aa(lp76
F-1.7591591979358636
aF-1.6912480747760337
aF-1.7209630799664155
aF-1.5831783840382765
aa(lp77
F-1.1013409759701687
aF-1.0464085419372022
aF-0.94278
aF-1.1146763886515125
aa(lp78
F-0.7729308442206336
aF-0.7341138269267465
aF-0.9335820172122277
aF-0.6125364112258153
aa(lp79
F-0.47422729710632117
aF-0.48447789034114147
aF-0.6831200000000001
aF-0.5107618252506076
aa(lp80
F-0.1
aF-0.1
aF-0.42059
aF1.448513201742141
aa(lp81
F3.5593453261540318
aF0.0
aF-0.1
aF0.0
aa(lp82
F4.181546696856974
aF6.037137311189596
aF3.4650388164164316
aF4.200065482427454
aa(lp83
F5.47321354297614
aF6.9061386622675816
aF5.819115328598089
aF6.1388239288818465
aa(lp84
F0.0
aF0.0
aF0.0
aF0.0
aa(lp85
F0.0
aF0.0
aF0.0
aF0.0
aa(lp86
F0.7958353483017359
aF0.2829640794291627
aF0.5711976801320866
aF0.21713233892404898
aa(lp87
F0.15335685978852537
aF-0.14059288977658058
aF-0.048282870043509334
aF-0.5562014647514022
aa(lp88
F-1.2068593643281076
aF-0.8665826271217427
aF0.15270699226153198
aF-1.261876334831372
aa(lp89
F-2.034957281147262
aF-2.0888302200672904
aF-1.690213684473925
aF-2.017803152240928
aa(lp90
F-1.8796448608820835
aF-1.7548476919263662
aF-1.7954618826575908
aF-1.780215203747803
aa(lp91
F-1.615485115895328
aF-1.7320283242397463
aF-1.434302508
aF-1.3473635684881429
aa(lp92
F-0.6851877654513059
aF-0.7410000000000001
aF-1.0499961224757004
aF-0.7368623883480659
aa(lp93
F-0.28
aF-0.3965421268852133
aF-0.5820414035824091
aF0.35163053649903386
aa(lp94
F0.0
aF0.0
aF-0.19
aF1.9840329814132942
aa(lp95
F0.42005597413000123
aF4.015461598562086
aF-0.08646612493922358
aF0.5505628101532412
aa(lp96
F2.8341882112971946
aF5.864473396529164
aF1.0278114272872059
aF3.216092807374465
aa(lp97
F4.919668682464559
aF5.989192842744342
aF5.241912767717351
aF5.424313204400537
aa(lp98
F0.0
aF0.0
aF0.0
aF0.0
aa(lp99
F0.0
aF0.0
aF0.0
aF0.0
aa(lp100
F0.9586678989149482
aF0.4814121390565248
aF0.837906299475374
aF0.3377158302439296
aa(lp101
F0.8716872748587995
aF0.03711501811010806
aF0.3498565305124003
aF-1.0001854680668034
aa(lp102
F-0.34129174137623386
aF-0.6363089800476021
aF0.08503777518353081
aF-1.9614857327551753
aa(lp103
F-1.2813453433013093
aF-1.7411288558140356
aF-1.5214684269876475
aF-2.029233271504671
aa(lp104
F-1.6901383725033583
aF-2.014442013287434
aF-1.8588697070803089
aF-2.009996447756614
aa(lp105
F-1.2702356161754604
aF-1.327470054158859
aF-1.3177363602265657
aF-1.4210242132108983
aa(lp106
F-0.8011754139871987
aF-0.9354379390628018
aF-1.0009354064938802
aF-0.8378209896281796
aa(lp107
F0.6839852441365244
aF-0.209
aF-0.1
aF-0.1
aa(lp108
F0.0
aF-0.0931260873203931
aF0.0
aF0.6350878905916705
aa(lp109
F0.40153095142284434
aF0.34739648305054555
aF-0.1
aF4.343347019618669
aa(lp110
F3.9624097565239795
aF5.09022250584423
aF3.731905772853207
aF4.596519488871699
aa(lp111
F4.304570765358636
aF5.358458762062802
aF4.614211106746728
aF4.9028816825711905
aa(lp112
F0.0
aF0.0
aF0.0
aF0.0
aa(lp113
F0.0
aF0.0
aF0.0
aF0.0
aa(lp114
F1.302959778180746
aF0.7610026032867022
aF0.9643272343407348
aF0.7696724000235046
aa(lp115
F1.401010410875761
aF0.29325918842233584
aF0.9581444872569109
aF0.22299038618795947
aa(lp116
F0.9553576965247906
aF-0.5903849334395662
aF0.5844407048616773
aF-1.077867532796351
aa(lp117
F0.08921764679253873
aF-1.3129892880471143
aF-0.5951111071608668
aF-1.0601981523878186
aa(lp118
F0.835334082932684
aF-1.3337297181244634
aF-0.7480748489827476
aF-0.8396625984351728
aa(lp119
F0.6292809706059538
aF-0.7147030039062803
aF-0.8463540056398492
aF-0.5351895812334847
aa(lp120
F-0.2314501804667956
aF-0.2
aF-0.49692973319220723
aF0.5903158496325984
aa(lp121
F0.2527956470717685
aF-0.1
aF-0.47871557808573767
aF2.8036871490564907
aa(lp122
F0.6021227512382079
aF-0.1
aF0.16254550989185507
aF3.752407821402325
aa(lp123
F2.3016631535337817
aF3.1824811663740613
aF1.5268919433204593
aF4.1906585693715925
aa(lp124
F3.754386270629286
aF4.5937537422805335
aF3.8630073069482704
aF4.2327634336541
aa(lp125
F3.8567953533042934
aF4.758138350120728
aF4.197854393211963
aF4.304912697548287
aa(lp126
F0.0
aF0.0
aF0.0
aF0.0
aa(lp127
F0.0
aF0.0
aF0.0
aF0.0
aa(lp128
F1.430724082806795
aF0.7237788316992204
aF0.6551951835829184
aF0.8207196448349806
aa(lp129
F1.553211750711228
aF0.7623208461627271
aF1.135795422546745
aF0.9349762532252206
aa(lp130
F1.8121294716397611
aF0.21441669315797204
aF1.1103904932377073
aF0.4264949825255768
aa(lp131
F1.9091103490194261
aF-0.7359225449974276
aF0.4201751176626522
aF0.34877523691478596
aa(lp132
F1.7115829028419298
aF-0.3451637062618097
aF-0.4482708120646427
aF0.010595505452474563
aa(lp133
F2.439823530945774
aF-0.7876308890600512
aF0.2113468595199747
aF0.3956269930861183
aa(lp134
F2.473989115588621
aF-0.1195623019334543
aF-0.12003969222032926
aF0.09558766668978161
aa(lp135
F2.5483041466246625
aF0.059687696083104175
aF0.20611007069147758
aF0.5291549623369866
aa(lp136
F2.8776869797107207
aF2.4770093695044384
aF2.3191558878964713
aF3.6253885765100984
aa(lp137
F3.249478108918248
aF3.934840453283208
aF3.3414246777215983
aF3.633550564209724
aa(lp138
F3.3758199995176854
aF4.175673612717114
aF3.5453119170224654
aF3.798736019700012
aa(lp139
F3.360500924517016
aF4.242422415348429
aF3.7163445386768643
aF3.7730879174976266
aa(lp140
F0.0
aF0.0
aF0.0
aF0.0
aa(lp141
F0.0
aF0.0
aF0.0
aF0.0
aa(lp142
F1.5118957784654448
aF0.45779191618448595
aF0.7336398075844542
aF0.9311098230355552
aa(lp143
F1.623658761048509
aF1.1767512501983828
aF0.9676929171623674
aF1.3201614541043845
aa(lp144
F1.818045747864431
aF0.8464481735833375
aF1.22692607538117
aF1.5990803830636442
aa(lp145
F1.5272546894219534
aF0.5153298906694919
aF1.2587515368893185
aF2.24192853571807
aa(lp146
F1.4333528301578247
aF0.6640647784775175
aF1.6095790404752612
aF2.4168963418010025
aa(lp147
F2.125793424765711
aF0.9496305080899685
aF1.8628112829314174
aF2.6209552504877514
aa(lp148
F2.3985484331509745
aF1.142868704624288
aF2.2267062655973593
aF2.8888215591270554
aa(lp149
F2.6243941219481846
aF2.4653501667782964
aF2.4818879771326907
aF3.131322218506791
aa(lp150
F2.815131118013242
aF3.3888993576679347
aF2.9314249827999572
aF3.130349366184326
aa(lp151
F2.927175994279282
aF3.6432931599664875
aF3.01594617238534
aF3.269168492455975
aa(lp152
F2.663037844863687
aF3.7722210785496495
aF3.070504900583099
aF3.0442833296162526
aa(lp153
F1.8956362856172093
aF3.7390441895725455
aF2.668399695709826
aF2.501577719602838
aa(lp154
F0.0
aF0.0
aF0.0
aF0.0
aa(lp155
F0.0
aF0.0
aF0.0
aF0.0
aa(lp156
F1.2331396649115134
aF1.4016609903625858
aF1.4925446800810587
aF1.6667701647056044
aa(lp157
F1.3089607209149796
aF1.5080800972957198
aF1.508452463325171
aF1.7364390637817853
aa(lp158
F1.626119058682654
aF1.7163771981976383
aF1.661660479885283
aF1.9323383174999327
aa(lp159
F1.7416230793626624
aF1.9427750578259357
aF1.7633950075405416
aF2.0842832084951484
aa(lp160
F1.910284959830139
aF2.0908458384137663
aF1.88424621856639
aF2.252503776851356
aa(lp161
F2.119633263472235
aF2.381499152968804
aF2.1010033923075615
aF2.430881998175018
aa(lp162
F2.243157135261838
aF2.5060792486205323
aF2.2503406963745536
aF2.6254061932668655
aa(lp163
F2.5004787188564217
aF2.673120172141569
aF2.370511327909022
aF2.9086131082386957
aa(lp164
F2.5038984543388443
aF3.153722503049693
aF2.5537541451922277
aF2.800379427663166
aa(lp165
F2.284277172439723
aF3.3264985252939363
aF2.373816650494899
aF2.4154459966075277
aa(lp166
F1.157163545466151
aF3.1644299879264346
aF1.8171772671615463
aF1.1750948899593383
aa(lp167
F0.640449739569827
aF1.164847044821112
aF2.6853866315057893
aF0.8491630864425084
aa(lp168
F0.0
aF0.0
aF0.0
aF0.0
aa(lp169
F0.0
aF0.0
aF0.0
aF0.0
aa(lp170
F1.2997541599892517
aF1.5303569761381108
aF1.2228384214954655
aF1.247908499114017
aa(lp171
F0.6727268495182155
aF0.9428486781660903
aF1.310875914529697
aF0.890919667744183
aa(lp172
F0.5244327100468763
aF1.7746646224671996
aF0.884442930249195
aF0.5423820503951813
aa(lp173
F0.31334805091771983
aF1.9158939565018556
aF4.617893637708559e-10
aF0.9539493633344833
aa(lp174
F0.7495572710211394
aF0.8612065355488676
aF0.9050259432040194
aF2.095337265332596
aa(lp175
F0.9902378755462443
aF2.2520700924398662
aF1.0032503320104604
aF1.3359855036498292
aa(lp176
F0.8923561418883947
aF2.487325522642542
aF1.3399956381079958
aF0.785898658031164
aa(lp177
F0.9262510186682534
aF2.6548949040062477
aF0.4084162841190915
aF0.0
aa(lp178
F0.3897295754175363
aF2.815320932146192
aF0.0
aF0.24699046447054768
aa(lp179
F0.6116610974148271
aF2.7636988595697582
aF0.4805431062029369
aF0.0
aa(lp180
F0.21063633706917526
aF2.6424444955661177
aF0.4272836850732358
aF0.1588636879611664
aa(lp181
F0.0002098844753857475
aF0.23213025166354254
aF1.953270425142737
aF0.0
aa(lp182
F0.0
aF0.0
aF0.0
aF0.0
aa(lp183
F0.0
aF0.0
aF0.0
aF0.0
aa(lp184
F0.0
aF0.0
aF0.0
aF0.0
aa(lp185
F0.0
aF0.0
aF0.0
aF0.0
aa(lp186
F0.0
aF0.0
aF0.0
aF0.0
aa(lp187
F0.0
aF0.0
aF0.0
aF0.0
aa(lp188
F0.0
aF0.0
aF0.0
aF0.0
aa(lp189
F0.0
aF0.0
aF0.0
aF0.0
aa(lp190
F0.0
aF0.0
aF0.0
aF0.0
aa(lp191
F0.0
aF0.0
aF0.0
aF0.0
aa(lp192
F0.0
aF0.0
aF0.0
aF0.0
aa(lp193
F0.0
aF0.0
aF0.0
aF0.0
aa(lp194
F0.0
aF0.0
aF0.0
aF0.0
aa(lp195
F0.0
aF0.0
aF0.0
aF0.0
aa(lp196
F0.0
aF0.0
aF0.0
aF0.0
aa.