(lp0
(lp1
F0.0
aF0.0
aF0.0
aF0.0
aa(lp2
F0.0
aF0.0
aF0.0
aF0.0
aa(lp3
F0.0
aF0.0
aF0.0
aF0.0
aa(lp4
F0.0
aF0.0
aF0.0
aF0.0
aa(lp5
F0.0
aF0.0
aF0.0
aF0.0
aa(lp6
F0.0
aF0.0
aF0.0
aF0.0
aa(lp7
F0.0
aF0.0
aF0.0
aF0.0
aa(lp8
F0.0
aF0.0
aF0.0
aF0.0
aa(lp9
F0.0
aF0.0
aF0.0
aF0.0
aa(lp10
F0.0
aF0.0
aF0.0
aF0.0
aa(lp11
F0.0
aF0.0
aF0.0
aF0.0
aa(lp12
F0.0
aF0.0
aF0.0
aF0.0
aa(lp13
F0.0
aF0.0
aF0.0
aF0.0
aa(lp14
F0.0
aF0.0
aF0.0
aF0.0
aa(lp15
F0.0
aF0.0
aF0.0
aF0.0
aa(lp16
F0.0
aF0.0
aF0.0
aF0.03850533043489509
aa(lp17
F0.0
aF0.0
aF0.0
aF0.10277210955731286
aa(lp18
F0.047185967805295624
aF0.0
aF0.0
aF0.8977661035769839
aa(lp19
F0.016316552981941887
aF0.10266486428744828
aF0.0
aF2.20646166119671
aa(lp20
F0.05789154672552704
aF0.0
aF0.09319211170016974
aF3.397652757403508
aa(lp21
F0.031186598809813004
aF0.6352519609232702
aF0.09374381308833567
aF4.684934691878416
aa(lp22
F5.029141980104485
aF0.5863371892873153
aF0.8285371898391791
aF0.12590445614088383
aa(lp23
F5.538981342885577
aF0.4919239943084371
aF0.7956549895257106
aF0.0
aa(lp24
F3.9682161306240302
aF0.0
aF0.5557115070753239
aF0.8755638276246787
aa(lp25
F0.0
aF0.0
aF0.0
aF7.369303219809998
aa(lp26
F3.6136416948083756
aF4.48244867671285
aF4.264842701702568
aF9.755484239886895
aa(lp27
F0.0
aF0.0
aF0.0
aF0.0
aa(lp28
F0.0
aF0.0
aF0.0
aF0.0
aa(lp29
F0.0
aF0.0
aF0.0
aF0.0
aa(lp30
F4.9568241834258286e-08
aF0.00259158160457962
aF0.0
aF0.6863902883383658
aa(lp31
F0.10819507617739188
aF0.0792390432596383
aF0.004288875454120018
aF2.0054319388568183
aa(lp32
F-0.06326168603767135
aF0.1416817685130926
aF0.20229305166530379
aF2.206693111102217
aa(lp33
F-0.17074852505415947
aF0.10891152230998913
aF0.1906744727359782
aF2.724014236294413
aa(lp34
F-0.0899281245988956
aF3.036552673676377
aF0.6840144093769909
aF0.7815362984089735
aa(lp35
F-0.1
aF3.788438068913786
aF0.45556624413562274
aF0.4889366755369186
aa(lp36
F-0.10155527447428467
aF0.39931590651751303
aF0.0
aF5.4649312156035315
aa(lp37
F0.611639027237268
aF0.8893825646765073
aF2.2824836038556287
aF6.058442644775569
aa(lp38
F2.0319822119987294
aF1.8561540293849292
aF1.2186725881345406
aF6.85482647969947
aa(lp39
F6.635051984833141
aF3.3208221650223346
aF1.2234356343768673
aF4.500366456407097
aa(lp40
F3.5076269009251604
aF9.147209341696172
aF5.234584208059499
aF7.583630615546063
aa(lp41
F7.931743466558991
aF9.76133492885025
aF8.656848779044017
aF8.930932700404828
aa(lp42
F0.0
aF0.0
aF0.0
aF0.0
aa(lp43
F0.0
aF0.0
aF0.0
aF0.0
aa(lp44
F0.0729364973251929
aF1.1015036628793007
aF0.14962745189544305
aF0.030345319135078527
aa(lp45
F-0.14469914094366898
aF1.470115892502851
aF-0.11937976482677577
aF-0.2549006216919725
aa(lp46
F-0.1601741740899564
aF0.04102265743521963
aF0.4695086069517415
aF-0.37725547289625316
aa(lp47
F-0.3881
aF1.2251824028216376
aF-0.34850117419065013
aF-0.2564342471125136
aa(lp48
F-0.299
aF1.916380140523275
aF-0.3829596944856936
aF-0.3090070739508555
aa(lp49
F-0.2
aF2.015496000155326
aF-0.19
aF-0.251858
aa(lp50
F0.0
aF2.5465881544664084
aF-0.1
aF-0.11256359805995411
aa(lp51
F-0.45533199266769053
aF2.748348748692253
aF-0.16334301616591612
aF-0.19907991428280294
aa(lp52
F0.0
aF2.7629493460476056
aF-0.19
aF0.0
aa(lp53
F0.6624302058643847
aF7.204921452263813
aF-0.06850038971383286
aF0.0
aa(lp54
F2.5424863775357003
aF5.081886767627256
aF1.871290595239063
aF7.776158999293654
aa(lp55
F7.044987292937031
aF8.687579910636247
aF7.4037872248545975
aF7.862750022390571
aa(lp56
F0.0
aF0.0
aF0.0
aF0.0
aa(lp57
F0.0
aF0.0
aF0.0
aF0.0
aa(lp58
F0.01618686568938668
aF0.8643502444161719
aF0.008681086383236822
aF-0.10924031670766507
aa(lp59
F-0.15909299962357915
aF-0.266125439183694
aF0.5443507708057496
aF-0.41504749639039296
aa(lp60
F-0.4619797900684783
aF-0.17833279890451256
aF-0.43607485074925856
aF-0.6527542017732516
aa(lp61
F-1.1532575804850689
aF-0.5571106198509215
aF-1.0896410939938213
aF-1.2152648003438415
aa(lp62
F-1.1410130938240264
aF-0.30860820002735445
aF-1.0910730581108499
aF-0.7028241791422183
aa(lp63
F-0.9365348329257512
aF-1.1915607424221764
aF-0.7608523016161959
aF-0.8887454716264954
aa(lp64
F-0.5129732865766038
aF-0.06677072102252046
aF-0.38
aF-0.42533472939793726
aa(lp65
F-0.38650391120185407
aF-0.2743491218107461
aF-0.5796789431552866
aF-0.12659173380770117
aa(lp66
F-0.09585151416248837
aF-0.0990495697841766
aF-0.38
aF1.3341439912998128
aa(lp67
F2.5434351378312225
aF0.69083898249605
aF-0.04620453707549796
aF0.0
aa(lp68
F3.304968813122113
aF7.511990722161455
aF3.0460924073657187
aF2.221762517821044
aa(lp69
F6.2652017876658
aF7.8294975227877135
aF6.816691366937964
aF6.803182786181891
aa(lp70
F0.0
aF0.0
aF0.0
aF0.0
aa(lp71
F0.0
aF0.0
aF0.0
aF0.0
aa(lp72
F-0.035020646032763884
aF0.4600262672106308
aF-0.046103955266237534
aF-0.05560953001168547
aa(lp73
F-0.263486452320124
aF-0.34461919959006876
aF0.226323230290627
aF-0.8481211908494034
aa(lp74
F-0.9162434701965942
aF-0.8267907088662109
aF-0.391583619210105
aF-0.7701878033516908
aa(lp75
F-1.8901259903560172
aF-1.6683916164252306
aF-1.403044039266457
aF-1.6852482159231257
aa(lp76
F-1.7200755991571282
aF-1.6382154043009265
aF-1.537806128767995
aF-1.577742564504258
aa(lp77
F-1.6234036401067364
aF-1.3764927956140298
aF-1.6953451274438498
aF-1.4804461289925628
aa(lp78
F-1.0015874514118086
aF-0.8875909888840291
aF-1.0162779428852966
aF-0.8140421381185807
aa(lp79
F-0.4052
aF-0.4965814568728657
aF-0.49624543195211096
aF-0.3714543195211091
aa(lp80
F0.33524649124091466
aF-0.18525940870822563
aF-0.21800000000000003
aF-0.10676752562304598
aa(lp81
F3.0047222012778323
aF0.4838414475255846
aF0.0
aF0.0
aa(lp82
F2.175697973372466
aF2.226174675463061
aF2.420192859399344
aF6.0473948554682035
aa(lp83
F5.638045280720988
aF6.9523762403969425
aF5.830095145421594
aF6.137790279321225
aa(lp84
F0.0
aF0.0
aF0.0
aF0.0
aa(lp85
F0.0
aF0.0
aF0.0
aF0.0
aa(lp86
F0.7147251949310095
aF0.19706318576751614
aF0.4321145373635667
aF0.0984201279299883
aa(lp87
F0.029528491509780427
aF-0.13046382643913584
aF0.3040470100764297
aF-1.2286640071059394
aa(lp88
F-0.7588554219971549
aF-0.9995005496780296
aF-0.18271191623973404
aF-1.6004871513427448
aa(lp89
F-2.514458268522967
aF-2.4539618822428984
aF-2.5576288753952507
aF-2.4931698857796105
aa(lp90
F-2.4583450710526202
aF-2.4926101806364382
aF-2.307392926129519
aF-2.4248240525026845
aa(lp91
F-1.970505766287677
aF-1.7622313200261799
aF-1.8018517086192565
aF-1.735727908972351
aa(lp92
F-1.1462123922788074
aF-1.2216420219392563
aF-1.374061473224428
aF-1.0908782561624084
aa(lp93
F-0.16352675801360578
aF-0.5592798015928973
aF-0.41501
aF-0.503048
aa(lp94
F-0.1
aF-0.0995739636253703
aF-0.1
aF0.5041608907013468
aa(lp95
F0.4094378634781956
aF0.0
aF-0.1
aF3.639385794406598
aa(lp96
F1.1139764940438959
aF5.70093680215532
aF2.7965195208143094
aF2.2475749907455485
aa(lp97
F4.929040756410291
aF6.044486177898785
aF5.313650871716583
aF5.510572197206322
aa(lp98
F0.0
aF0.0
aF0.0
aF0.0
aa(lp99
F0.0
aF0.0
aF0.0
aF0.0
aa(lp100
F0.9319225084208538
aF0.4023272504472092
aF0.7090192014945308
aF0.423161119071499
aa(lp101
F0.8157448456614108
aF0.0745740403377578
aF0.42523355887895575
aF-0.06820101300134726
aa(lp102
F-0.7243579244639371
aF-0.8103804621675044
aF-0.4003975511959754
aF-2.375706918408726
aa(lp103
F-1.5324049627404723
aF-1.713662148398026
aF-1.2159908039702993
aF-2.0245954606912684
aa(lp104
F-2.1409103318293385
aF-2.455653570335957
aF-2.48919159930027
aF-2.2677605137358396
aa(lp105
F-1.2942245766058094
aF-1.347442188131344
aF-1.4170994504960182
aF-1.2198984052872575
aa(lp106
F-0.45196406308257164
aF-0.551
aF-0.8233789339166845
aF-0.3138777028348547
aa(lp107
F-0.2894145726764607
aF-0.21617990773060744
aF-0.2536746238206125
aF1.703716354011063
aa(lp108
F0.0
aF-0.1
aF-0.1
aF3.3426059113569244
aa(lp109
F-0.09942638319786043
aF0.5135468199872818
aF0.09829986061536536
aF4.668186424556212
aa(lp110
F1.0574054837578284
aF5.252065166719815
aF2.4997375610862465
aF1.2040008466017724
aa(lp111
F4.386170400229988
aF5.214875913964472
aF4.800709428096022
aF4.8545332435960615
aa(lp112
F0.0
aF0.0
aF0.0
aF0.0
aa(lp113
F0.0
aF0.0
aF0.0
aF0.0
aa(lp114
F1.0624198457844118
aF0.5566076576473271
aF0.8628634580562368
aF0.6154778295337904
aa(lp115
F1.1159928470550984
aF0.29890355526906043
aF0.8393681353255044
aF0.046095010006608345
aa(lp116
F0.2427000307407545
aF-0.6217481317525189
aF0.633652570168937
aF-1.3328477471492701
aa(lp117
F0.1169690529779912
aF-1.2803397382603239
aF-0.9537261338249521
aF-1.0505655509185126
aa(lp118
F0.3024500703923939
aF-1.0318736138716564
aF-1.2047117133158038
aF-1.1645209635350937
aa(lp119
F-0.012905021558253654
aF-0.6317409
aF-0.5913906092319395
aF-0.7075437352044446
aa(lp120
F-0.09999999999938032
aF-0.2
aF-0.2
aF0.18855949010708822
aa(lp121
F-0.1
aF0.08159419989878026
aF-0.1
aF-0.19053982804092817
aa(lp122
F1.570183152528159
aF-0.07989145406932634
aF-0.19629975114386772
aF0.3228456166138303
aa(lp123
F0.6123408083355
aF4.176868064238108
aF0.09635585761027798
aF0.4232843689763617
aa(lp124
F3.6268849808864587
aF2.652860605980041
aF2.1481195395762502
aF2.1014128519823854
aa(lp125
F3.871889062687024
aF4.675034059371129
aF3.683192486739663
aF4.229827600130728
aa(lp126
F0.0
aF0.0
aF0.0
aF0.0
aa(lp127
F0.0
aF0.0
aF0.0
aF0.0
aa(lp128
F1.1591755324899518
aF0.6554318344136165
aF0.5454678972596341
aF0.8699428770727821
aa(lp129
F1.2451507804651876
aF0.7310822419249781
aF1.0081252160977208
aF0.7512624299231547
aa(lp130
F1.37392877687818
aF-0.5153766055895767
aF0.7211299965728157
aF0.11690329938312728
aa(lp131
F1.4694494099179962
aF-1.2075448999156084
aF-0.3802893076430721
aF-0.3192898589014429
aa(lp132
F1.531774496845329
aF-1.3406725071836014
aF-0.020086956842043972
aF-0.035364003594765825
aa(lp133
F1.6790618456005713
aF-0.17690946864926685
aF-0.07406389517353244
aF-0.05335112298617113
aa(lp134
F1.697988930907106
aF-0.292809764340179
aF0.0
aF0.06306130026309134
aa(lp135
F0.0
aF0.0
aF-0.1
aF1.8781891220350542
aa(lp136
F0.0
aF4.8851049104063465e-06
aF0.18093954407809998
aF2.6054596440769466
aa(lp137
F0.5528527527852602
aF3.52352131976834
aF0.9445285272060376
aF0.8630357268806517
aa(lp138
F2.907162127371939
aF3.4061639462442845
aF2.9182278568750752
aF3.7260084583197624
aa(lp139
F3.3839925828666844
aF4.018026864400756
aF3.70752536705906
aF3.731247709864533
aa(lp140
F0.0
aF0.0
aF0.0
aF0.0
aa(lp141
F0.0
aF0.0
aF0.0
aF0.0
aa(lp142
F1.1728621910995454
aF0.3754972008645356
aF0.7091454559626986
aF0.7624190754583907
aa(lp143
F1.0005841305676904
aF0.9527468335646009
aF0.9753878200776068
aF1.3772808347185936
aa(lp144
F1.3326107194325518
aF0.6572809409333377
aF1.009083130141779
aF1.499313574143007
aa(lp145
F1.6787524952937616
aF0.23705209309861802
aF1.266855063150726
aF1.3851886741562334
aa(lp146
F1.4684895417874015
aF0.22933999265385946
aF1.2457567001132959
aF1.7733086588974816
aa(lp147
F1.8937237771559436
aF0.20037913994390835
aF0.8597394665288153
aF1.0673640494398502
aa(lp148
F2.1307481825187042
aF0.15770166257748844
aF1.2579093680839655
aF1.1895371871005929
aa(lp149
F2.2248291338672503
aF0.21108677108727317
aF0.6409620311329565
aF0.44387963150458376
aa(lp150
F2.524058282582141
aF0.6475188648678395
aF0.7769727434743096
aF0.7650057791658748
aa(lp151
F0.9560201048877959
aF3.2269262877927414
aF0.4192589578774585
aF0.6205419672158208
aa(lp152
F2.898782572010321
aF3.549302073781095
aF2.8063776941361818
aF3.170612631117905
aa(lp153
F3.007894679952103
aF3.5713745073794794
aF3.318623035356055
aF3.3809983913516635
aa(lp154
F0.0
aF0.0
aF0.0
aF0.0
aa(lp155
F0.0
aF0.0
aF0.0
aF0.0
aa(lp156
F1.2413962041319087
aF1.1052245213621872
aF1.1543238980889359
aF1.2954190106769652
aa(lp157
F1.3816809560880763
aF0.8797567176619094
aF0.9449799517968575
aF1.2576575753228385
aa(lp158
F1.5093557124686827
aF0.23735104105123667
aF0.5206002094257801
aF0.7903529175849213
aa(lp159
F1.4254339278899615
aF1.3559413449469344
aF1.321335458156187
aF1.867756016787307
aa(lp160
F1.7016599202546838
aF1.454684047951851
aF1.5478177757720237
aF1.948438529806423
aa(lp161
F1.884891131637552
aF1.6954236090447719
aF1.658647264279948
aF2.1489210303072506
aa(lp162
F2.066966498125182
aF1.9386024346036173
aF1.840008146150807
aF2.345026046616174
aa(lp163
F2.0656990274825358
aF2.000682046032432
aF2.03192725753705
aF2.5814390713077575
aa(lp164
F2.308747925038632
aF2.44272836945933
aF2.369411689690535
aF2.7454550298407114
aa(lp165
F2.5830325398167187
aF3.0434429746276157
aF2.5446132487174777
aF2.872639466794035
aa(lp166
F2.621344668466515
aF3.196485423791813
aF2.7940468477175506
aF2.9473612400062206
aa(lp167
F2.641022935253258
aF3.1298574073527043
aF2.9504973820172555
aF2.9647454139983758
aa(lp168
F0.0
aF0.0
aF0.0
aF0.0
aa(lp169
F0.0
aF0.0
aF0.0
aF0.0
aa(lp170
F1.2085372603698672
aF1.2015937404762087
aF1.258118818269258
aF1.378417344759934
aa(lp171
F1.2935154144844794
aF1.2326203535028075
aF1.2768887601712242
aF1.4482461693082707
aa(lp172
F1.4373916165079532
aF1.4481735092292591
aF1.3646507029375672
aF1.5647199052336926
aa(lp173
F1.5058787176219606
aF1.6228410925163703
aF1.48966210859607
aF1.7061946404660513
aa(lp174
F1.6745047016864807
aF1.7979385093298605
aF1.5914752720235121
aF1.874627652546917
aa(lp175
F1.7883114991191023
aF1.9829968729204275
aF1.7890733187867978
aF1.9167895869418885
aa(lp176
F1.968392100603359
aF2.0857911674073226
aF1.888022285417998
aF2.1440790737944653
aa(lp177
F2.1083219611800703
aF2.326040148020907
aF2.0269841547752505
aF2.271265481939614
aa(lp178
F2.249860706246656
aF2.450306567000245
aF2.1754030284158867
aF2.4907916690515477
aa(lp179
F2.4275351991114213
aF2.747278205050085
aF2.3231838149372694
aF2.541636637911869
aa(lp180
F2.466608537036347
aF2.903817074445286
aF2.302065363521825
aF2.60639645506645
aa(lp181
F2.572813721704158
aF2.8969154265299766
aF2.3819452231117184
aF2.4305474030693066
aa(lp182
F0.0
aF0.0
aF0.0
aF0.0
aa(lp183
F0.0
aF0.0
aF0.0
aF0.0
aa(lp184
F0.0
aF0.0
aF0.0
aF0.0
aa(lp185
F0.0
aF0.0
aF0.0
aF0.0
aa(lp186
F0.0
aF0.0
aF0.0
aF0.0
aa(lp187
F0.0
aF0.0
aF0.0
aF0.0
aa(lp188
F0.0
aF0.0
aF0.0
aF0.0
aa(lp189
F0.0
aF0.0
aF0.0
aF0.0
aa(lp190
F0.0
aF0.0
aF0.0
aF0.0
aa(lp191
F0.0
aF0.0
aF0.0
aF0.0
aa(lp192
F0.0
aF0.0
aF0.0
aF0.0
aa(lp193
F0.0
aF0.0
aF0.0
aF0.0
aa(lp194
F0.0
aF0.0
aF0.0
aF0.0
aa(lp195
F0.0
aF0.0
aF0.0
aF0.0
aa(lp196
F0.0
aF0.0
aF0.0
aF0.0
aa.