(lp0
(lp1
F0.0
aF0.0
aF0.0
aF0.0
aa(lp2
F0.0
aF0.0
aF0.0
aF0.0
aa(lp3
F0.0
aF0.0
aF0.0
aF0.0
aa(lp4
F0.0
aF0.0
aF0.0
aF0.0
aa(lp5
F0.0
aF0.0
aF0.0
aF0.0
aa(lp6
F0.0
aF0.0
aF0.0
aF0.0
aa(lp7
F0.0
aF0.0
aF0.0
aF0.0
aa(lp8
F0.0
aF0.0
aF0.0
aF0.0
aa(lp9
F0.0
aF0.0
aF0.0
aF0.0
aa(lp10
F0.0
aF0.0
aF0.0
aF0.0
aa(lp11
F0.0
aF0.0
aF0.0
aF0.0
aa(lp12
F0.0
aF0.0
aF0.0
aF0.0
aa(lp13
F0.0
aF0.0
aF0.0
aF0.0
aa(lp14
F0.0
aF0.0
aF0.0
aF0.0
aa(lp15
F0.0
aF0.0
aF0.0
aF0.0
aa(lp16
F-0.0009037329790648192
aF-0.001602021919998511
aF-0.00042508051883978623
aF-7.229504081497393e-05
aa(lp17
F-0.0038699011931062994
aF-0.00013605061098935018
aF-0.00021372071087089333
aF-0.0003122374982941524
aa(lp18
F-0.011390625000000001
aF-0.010251562500000002
aF-0.00040736919592469984
aF-0.001292014032714844
aa(lp19
F-0.11390625
aF-0.0035047936704973815
aF-0.0014954595041052525
aF-0.06533827842041016
aa(lp20
F-0.1125
aF-0.011390625000000001
aF-0.01265625
aF-0.0010536792414431813
aa(lp21
F-0.10209479141090691
aF-0.43919620107986757
aF-0.003471599180786133
aF-0.0022328381055936827
aa(lp22
F-0.0313363869514368
aF-0.005623398382857374
aF-0.037433421372262694
aF-0.0015975378821399427
aa(lp23
F-0.118828125
aF-0.03971960684220165
aF-0.03321509279794329
aF-0.0013048294503195477
aa(lp24
F-0.013306250014411927
aF-0.030754687500000006
aF-0.035807224979647265
aF-0.034171875000000004
aa(lp25
F-0.0759375
aF0.0
aF-0.0006407226562500001
aF0.0
aa(lp26
F0.0
aF0.0
aF0.0
aF0.0
aa(lp27
F0.0
aF0.0
aF0.0
aF0.0
aa(lp28
F0.0
aF0.0
aF0.0
aF0.0
aa(lp29
F0.0
aF0.0
aF0.0
aF0.0
aa(lp30
F-0.0019469565657256435
aF-4.091874329731263e-05
aF-0.0017676826547267095
aF-0.0005890765138516125
aa(lp31
F-0.00010979581287973595
aF-0.00019469136916774686
aF-0.004295989126263162
aF-0.0006924339989183934
aa(lp32
F-0.0008982130737304689
aF-0.010251562500000002
aF-8.058050118755691e-05
aF-0.08145186381958008
aa(lp33
F-0.5
aF-0.725
aF-0.3125
aF-0.061243214649605714
aa(lp34
F-0.625
aF-0.25
aF-0.3527117973632813
aF-0.014944618738647974
aa(lp35
F-0.9875
aF-0.05226044122412978
aF-0.5257804946762245
aF-0.25
aa(lp36
F-0.5
aF-0.5005992833016277
aF-0.5
aF-0.29733488787963863
aa(lp37
F-0.5
aF-0.39778125
aF-0.2821038268016357
aF-0.49842968749999994
aa(lp38
F-1.1253125
aF-0.001182165406189728
aF-0.225
aF-0.0140625
aa(lp39
F-0.16875
aF0.0
aF0.0
aF0.0
aa(lp40
F0.0
aF0.0
aF0.0
aF0.0
aa(lp41
F0.0
aF0.0
aF0.0
aF0.0
aa(lp42
F0.0
aF0.0
aF0.0
aF0.0
aa(lp43
F0.0
aF0.0
aF0.0
aF0.0
aa(lp44
F-5.881668194860987e-05
aF-4.366748446953164e-05
aF-2.916064183248088e-05
aF-0.00015141039017406107
aa(lp45
F-0.002152963777699722
aF-0.015386616782531483
aF-3.489840387984221e-05
aF-0.005125781250000001
aa(lp46
F-0.225
aF-9.788712501318807e-05
aF-0.5
aF-0.5
aa(lp47
F-0.5
aF-0.225
aF0.0
aF-0.75
aa(lp48
F-1.0
aF-0.7306953125
aF-0.5
aF-0.5
aa(lp49
F-1.0
aF-0.046023715684339474
aF-0.75512578125
aF-0.75
aa(lp50
F-1.0
aF-0.5002883251953125
aF-0.5
aF-0.5
aa(lp51
F-1.0
aF-0.17722273592285157
aF-0.5
aF-0.5
aa(lp52
F-0.975
aF-0.5
aF-0.5
aF-0.253125
aa(lp53
F-0.125
aF0.0
aF-0.9003125
aF0.0
aa(lp54
F0.0
aF0.0
aF-0.1125
aF0.0
aa(lp55
F0.0
aF0.0
aF0.0
aF0.0
aa(lp56
F0.0
aF0.0
aF0.0
aF0.0
aa(lp57
F0.0
aF0.0
aF0.0
aF0.0
aa(lp58
F0.0342852758859752
aF-6.927811760877309e-05
aF-4.8232586787877465e-05
aF-0.0013776987479601844
aa(lp59
F-0.0013883986035586008
aF-0.000109324493198133
aF-0.0007301807295363548
aF-0.003703558821249848
aa(lp60
F-0.22521061254501343
aF-0.0008581237949599994
aF-0.25
aF-0.25
aa(lp61
F-0.5
aF-0.5
aF-0.0004237028846740724
aF0.0
aa(lp62
F-1.0
aF-0.5
aF0.0
aF0.0
aa(lp63
F-1.5
aF-0.5
aF0.0
aF-1.0
aa(lp64
F-1.5
aF-0.75
aF-1.0
aF-1.45
aa(lp65
F-1.0
aF-0.87403125
aF-1.5
aF-0.5
aa(lp66
F-0.20933214900244942
aF-0.6012500000000001
aF-1.0
aF-1.0
aa(lp67
F0.7227061743070765
aF0.0
aF-0.5
aF0.0
aa(lp68
F0.0
aF0.0
aF0.05638359375
aF0.0
aa(lp69
F0.0
aF0.0
aF0.0
aF0.0
aa(lp70
F0.0
aF0.0
aF0.0
aF0.0
aa(lp71
F0.0
aF0.0
aF0.0
aF0.0
aa(lp72
F0.31662820960521565
aF-0.00013616282781118316
aF-0.00013708457546712804
aF-8.785864838272208e-05
aa(lp73
F-0.00018259907915666704
aF-0.00017322093470363797
aF0.1930179624030814
aF-0.0011533007812500004
aa(lp74
F-0.07599097810634511
aF-0.225
aF-0.25016218292236325
aF-0.5
aa(lp75
F-0.5
aF-0.5
aF-4.813029571058906e-05
aF-1.0
aa(lp76
F-1.0
aF-1.0
aF-0.75
aF-1.5
aa(lp77
F-1.5
aF-1.5
aF-1.0
aF0.0
aa(lp78
F0.0
aF-1.225
aF-1.5
aF-1.0
aa(lp79
F-1.475
aF-1.0
aF-1.5
aF0.15745005016444502
aa(lp80
F-0.75
aF-1.1344490054270433
aF-1.0
aF2.324277163113015
aa(lp81
F2.673440671268392
aF0.0
aF-0.5640814407046544
aF1.0211788479794912
aa(lp82
F2.774844420072455
aF0.0
aF0.0
aF0.0
aa(lp83
F0.0
aF0.0
aF0.14357167218569764
aF0.0
aa(lp84
F0.0
aF0.0
aF0.0
aF0.0
aa(lp85
F0.0
aF0.0
aF0.0
aF0.0
aa(lp86
F0.3836852254288978
aF0.23053311569720988
aF0.33300787946708
aF0.30063023274992384
aa(lp87
F0.35707319644110413
aF0.04896254211221954
aF-0.00047113494086993487
aF-0.051525232502276086
aa(lp88
F0.037168856375412264
aF-0.5
aF-0.5000564556994928
aF-0.5
aa(lp89
F-0.5
aF-0.5
aF0.0
aF-1.675
aa(lp90
F0.0
aF-1.225
aF0.0
aF-2.25
aa(lp91
F-1.5
aF-1.95
aF-1.0
aF-1.0
aa(lp92
F2.1724538574218752
aF-1.5
aF-1.5
aF-0.8812499999999999
aa(lp93
F-1.225
aF-1.225
aF-1.0
aF-0.40253439442366645
aa(lp94
F-0.5
aF-0.5753108920770107
aF-1.1188294274725443
aF2.692627653437224
aa(lp95
F1.0348246900960978
aF2.0426569789966673
aF0.3593138125422739
aF3.350775672224543
aa(lp96
F4.356566072803995
aF1.5011045891408274
aF0.6420846157725006
aF0.46044285518380695
aa(lp97
F3.377179690254591
aF0.010782022759515363
aF0.0
aF0.009320668450533559
aa(lp98
F0.0
aF0.0
aF0.0
aF0.0
aa(lp99
F0.0
aF0.0
aF0.0
aF0.0
aa(lp100
F0.5123052646589477
aF0.3214232647813189
aF0.37048660884425477
aF0.3808157537751842
aa(lp101
F0.21259878559570855
aF0.13320883009654672
aF0.4208442096668352
aF0.15124252125271184
aa(lp102
F-0.5
aF-0.5123318788767421
aF0.23166878349478828
aF-0.75
aa(lp103
F-0.5
aF-0.5
aF-0.23849922546386718
aF-1.0
aa(lp104
F-1.0
aF-1.5
aF-0.5
aF-1.5
aa(lp105
F-1.725
aF0.0
aF-1.0
aF2.493250976562501
aa(lp106
F0.0
aF-1.5705322265625
aF0.0
aF8.52494873046875
aa(lp107
F0.0
aF0.0
aF0.0
aF0.0
aa(lp108
F5.029490356447569
aF1.2563622561046985
aF9.491344711866011
aF5.0375948870095515
aa(lp109
F3.8831391565648614
aF1.5974500807855692
aF7.136493324588362
aF3.3641867095341293
aa(lp110
F2.1894875846029342
aF0.9595776170047656
aF5.595034684693701
aF3.3826466787780953
aa(lp111
F0.8772030335129049
aF0.0
aF4.348765082848746
aF-0.04556131165048199
aa(lp112
F0.0
aF0.0
aF0.0
aF0.0
aa(lp113
F0.0
aF0.0
aF0.0
aF0.0
aa(lp114
F0.5496044962814848
aF0.4135640420313775
aF0.5190365426407241
aF0.39935019010253026
aa(lp115
F0.11702401907592364
aF0.27863266607455345
aF0.5149025136576526
aF-0.03057845806901908
aa(lp116
F-0.5
aF0.22083776474394756
aF-0.5
aF-0.75
aa(lp117
F-0.5
aF-0.520503125
aF-0.005228947608947755
aF-1.0
aa(lp118
F-0.5
aF-1.5
aF-1.3673515625
aF-1.0
aa(lp119
F0.5114622306403169
aF-1.2749902343749995
aF-0.9375
aF-1.0
aa(lp120
F0.4116206452662403
aF1.095775390625
aF-1.2835684435797055
aF3.374240152521477
aa(lp121
F3.5955120557166627
aF4.1155752249719875
aF3.0304335443113617
aF5.839005887829668
aa(lp122
F3.5236387156551308
aF6.800458362717217
aF3.3042222479508716
aF3.3069442521554673
aa(lp123
F0.8266392253972428
aF6.15480988256933
aF2.425708853220692
aF2.9973205357521104
aa(lp124
F1.8567016800222078
aF2.9609093946566705
aF4.4269424251078675
aF2.761467043236773
aa(lp125
F0.8871351783782496
aF0.4085239184666363
aF3.1580536423623875
aF0.69084816609584
aa(lp126
F0.0
aF0.0
aF0.0
aF0.0
aa(lp127
F0.0
aF0.0
aF0.0
aF0.0
aa(lp128
F0.6121879727072148
aF0.4453848322558317
aF0.4983168551537061
aF0.42158006696900785
aa(lp129
F0.569988273503975
aF-0.050625
aF0.22212846841625017
aF0.08994821711296766
aa(lp130
F-0.5
aF-0.0007218144107311965
aF0.3273763112504715
aF-0.75
aa(lp131
F0.21039286385424738
aF-0.5
aF-0.5032407751953125
aF-0.975
aa(lp132
F0.06847590444428753
aF-1.0
aF-1.25
aF-1.426626118519023
aa(lp133
F1.5378367487894349
aF-1.0
aF-1.5240870707408565
aF-0.5
aa(lp134
F2.183333836366849
aF-1.0750042791153036
aF-0.16530709298613833
aF0.4418271016269961
aa(lp135
F2.533831501527316
aF3.5497903240568642
aF1.9434804010389026
aF1.6226377543678436
aa(lp136
F2.108839781247139
aF6.656621507091906
aF2.2474212762457393
aF3.4158424378213565
aa(lp137
F1.2272688431902352
aF2.202228184871143
aF-0.06382350735883831
aF4.080270119924258
aa(lp138
F-0.0071630452991511455
aF3.529401666782403
aF0.0
aF1.9061472262954426
aa(lp139
F-0.0005795094855796047
aF2.925428956804917
aF2.1435985442867453
aF0.6464527693568668
aa(lp140
F0.0
aF0.0
aF0.0
aF0.0
aa(lp141
F0.0
aF0.0
aF0.0
aF0.0
aa(lp142
F0.744964069612434
aF0.5183670452267212
aF0.6642379301130629
aF0.5880911372239156
aa(lp143
F0.4291748973662459
aF0.15023538609901319
aF0.7692018599057102
aF0.33354958359259707
aa(lp144
F0.0
aF-0.225
aF0.0
aF0.9876707839196981
aa(lp145
F1.0304260071655935
aF-0.975
aF-0.5
aF0.10976850577265407
aa(lp146
F1.300880065758825
aF-1.6962499999999998
aF-0.1125
aF1.0493199897172196
aa(lp147
F0.9765398761451441
aF0.18484504573089555
aF1.3229837356972316
aF1.215958578801048
aa(lp148
F2.431256143134343
aF1.6232875673053586
aF1.4192274549210286
aF1.6583692969354962
aa(lp149
F2.3212806043922276
aF2.975311233994506
aF2.142868467555598
aF4.326787672441383
aa(lp150
F1.9676049262722382
aF5.6288503756555475
aF2.610281684613544
aF2.032552821379833
aa(lp151
F0.38995140232975656
aF-0.017873955504581894
aF-0.06762012546645346
aF2.779234032571364
aa(lp152
F0.8713265955828584
aF2.812409668214548
aF1.520096478541
aF0.7244872171099637
aa(lp153
F0.3017617229733457
aF2.6187388048862017
aF0.5000766051868134
aF1.5692757711529168
aa(lp154
F0.0
aF0.0
aF0.0
aF0.0
aa(lp155
F0.0
aF0.0
aF0.0
aF0.0
aa(lp156
F0.8987463776406679
aF0.6159551933462485
aF0.700391122920844
aF0.6798117125972261
aa(lp157
F0.5979944559149696
aF0.5515567552802476
aF0.6727545648194202
aF0.30466164745131374
aa(lp158
F0.8975909689584186
aF0.3378596932450465
aF0.6747515420059551
aF0.5107099967360336
aa(lp159
F1.3775968090869124
aF0.39527608229662553
aF0.8619801604384559
aF0.9585800788009532
aa(lp160
F1.4380557967798246
aF1.0540850378847644
aF1.1214180247732215
aF1.498968132633033
aa(lp161
F1.9726384716368053
aF1.3842350224836404
aF1.2407512855024434
aF1.412475191090043
aa(lp162
F1.7291162269139302
aF1.7631505731922128
aF1.7041326527897378
aF2.5940551887218763
aa(lp163
F2.027043691082726
aF3.098674645830739
aF1.9798118104446312
aF2.2440942925334446
aa(lp164
F0.9785746404706047
aF1.080330012641062
aF3.346144449850372
aF0.700312519177224
aa(lp165
F0.284975647481234
aF0.19643643249808823
aF0.21029139661821272
aF1.6511859383008705
aa(lp166
F0.2104084010721603
aF1.512120684925272
aF0.4068662121263859
aF1.9879937151263922
aa(lp167
F0.17683821737815597
aF2.1737804686583564
aF0.32252468104478776
aF0.5562345152469421
aa(lp168
F0.0
aF0.0
aF0.0
aF0.0
aa(lp169
F0.0
aF0.0
aF0.0
aF0.0
aa(lp170
F0.7728739476414723
aF0.7011504760277184
aF0.8546789220079426
aF1.1431586168735413
aa(lp171
F0.8900368975598347
aF0.6724348226120856
aF0.7527419010164419
aF1.434384951361169
aa(lp172
F0.8251039691936595
aF0.8242268707755688
aF0.8688291497122589
aF1.5921878618144838
aa(lp173
F1.264042828831144
aF1.0945345697121924
aF0.9334069395337957
aF1.6605589357635944
aa(lp174
F1.133858917856708
aF1.2025242189704781
aF1.0848996108108389
aF2.064376055503892
aa(lp175
F1.539897167730531
aF1.4093214525322788
aF1.4958975668675087
aF2.4935951218059387
aa(lp176
F2.245121338107264
aF1.8763258893921817
aF1.6189001751936556
aF2.606624271538143
aa(lp177
F2.4152682725519243
aF2.385533389011878
aF1.6715903510763659
aF0.7262457025823682
aa(lp178
F0.6083683016046108
aF1.2020651418646258
aF0.0004908099284317214
aF0.9864305806392589
aa(lp179
F0.433091045189536
aF0.34830009374723775
aF-0.0016770412242984847
aF0.6568359996124915
aa(lp180
F5.09436882265693e-05
aF1.2835819693578767
aF5.607647444735618e-05
aF0.1387324169863176
aa(lp181
F0.08845545315047178
aF0.0
aF0.3784331647623386
aF0.0
aa(lp182
F0.0
aF0.0
aF0.0
aF0.0
aa(lp183
F0.0
aF0.0
aF0.0
aF0.0
aa(lp184
F0.0
aF0.0
aF0.0
aF0.0
aa(lp185
F0.0
aF0.0
aF0.0
aF0.0
aa(lp186
F0.0
aF0.0
aF0.0
aF0.0
aa(lp187
F0.0
aF0.0
aF0.0
aF0.0
aa(lp188
F0.0
aF0.0
aF0.0
aF0.0
aa(lp189
F0.0
aF0.0
aF0.0
aF0.0
aa(lp190
F0.0
aF0.0
aF0.0
aF0.0
aa(lp191
F0.0
aF0.0
aF0.0
aF0.0
aa(lp192
F0.0
aF0.0
aF0.0
aF0.0
aa(lp193
F0.0
aF0.0
aF0.0
aF0.0
aa(lp194
F0.0
aF0.0
aF0.0
aF0.0
aa(lp195
F0.0
aF0.0
aF0.0
aF0.0
aa(lp196
F0.0
aF0.0
aF0.0
aF0.0
aa.