(lp0
(lp1
F0.0
aF0.0
aF0.0
aF0.0
aa(lp2
F0.0
aF0.0
aF0.0
aF0.0
aa(lp3
F0.0
aF0.0
aF0.0
aF0.0
aa(lp4
F0.0
aF0.0
aF0.0
aF0.0
aa(lp5
F0.0
aF0.0
aF0.0
aF0.0
aa(lp6
F0.0
aF0.0
aF0.0
aF0.0
aa(lp7
F0.0
aF0.0
aF0.0
aF0.0
aa(lp8
F0.0
aF0.0
aF0.0
aF0.0
aa(lp9
F0.0
aF0.0
aF0.0
aF0.0
aa(lp10
F0.0
aF0.0
aF0.0
aF0.0
aa(lp11
F0.0
aF0.0
aF0.0
aF0.0
aa(lp12
F0.0
aF0.0
aF0.0
aF0.0
aa(lp13
F0.0
aF0.0
aF0.0
aF0.0
aa(lp14
F0.0
aF0.0
aF0.0
aF0.0
aa(lp15
F0.0
aF0.0
aF0.0
aF0.0
aa(lp16
F0.0
aF0.0
aF0.0
aF0.0
aa(lp17
F0.0
aF0.0
aF0.0
aF0.15558308233211296
aa(lp18
F1.9923365827833655
aF0.2659772473098008
aF0.002607781604183366
aF0.0
aa(lp19
F1.779487537707841
aF0.1552188066527164
aF2.3846982765840083
aF4.000041377417082
aa(lp20
F-0.225
aF-0.225
aF0.49816259393318185
aF3.389250393442695
aa(lp21
F3.119237936574058
aF1.5655933650156886
aF1.0064064395451313
aF3.7693946050090275
aa(lp22
F2.3084195119929047
aF3.166988686975628
aF1.5203837148313948
aF5.102255143410327
aa(lp23
F3.8577732893716408
aF2.534813419436496
aF1.2840747339371392
aF6.122080768403023
aa(lp24
F6.096103647632931
aF3.3958627057700186
aF3.6484815348174497
aF3.125427006073595
aa(lp25
F7.636929294345199
aF3.2108841661081104
aF4.997461449752748
aF0.0
aa(lp26
F5.757798607372162
aF5.547052214909048
aF0.0
aF9.99995441149374
aa(lp27
F0.0
aF0.0
aF0.0
aF0.0
aa(lp28
F0.0
aF0.0
aF0.0
aF0.0
aa(lp29
F0.0
aF0.0
aF0.0
aF0.0
aa(lp30
F0.0
aF0.07001238704945083
aF1.17219411922544
aF0.0
aa(lp31
F1.9922720878489415
aF0.13630232980602947
aF0.6129558179983777
aF2.8549608504254724
aa(lp32
F-0.2618531125222327
aF0.3839368908533276
aF1.0427227674055437
aF2.536495456503662
aa(lp33
F0.8511991255925246
aF3.4797146119410556
aF1.8025765573963
aF1.6059790557947842
aa(lp34
F-0.75
aF1.622707925980154
aF2.770651878529765
aF1.3438503746416284
aa(lp35
F-1.0584685428796596
aF3.8613896053638994
aF0.6245546108910911
aF-0.1681563172954559
aa(lp36
F-0.8030201911408675
aF4.773511634429388
aF0.6250606137552163
aF1.62101131408193
aa(lp37
F-0.6868403525505066
aF5.062635748762974
aF0.2249089109010145
aF2.753392100600265
aa(lp38
F1.9579669555335006
aF3.298084202089517
aF3.9176600665429016
aF6.487206768525452
aa(lp39
F7.844508257807167
aF5.694854050988889
aF4.043511053130765
aF4.067111033560072
aa(lp40
F7.157170930495393
aF5.866368624504778
aF6.00442967999246
aF8.851465592734545
aa(lp41
F7.6746631940059356
aF9.523455875275616
aF7.844654168345354
aF8.580278665327072
aa(lp42
F0.0
aF0.0
aF0.0
aF0.0
aa(lp43
F0.0
aF0.0
aF0.0
aF0.0
aa(lp44
F-0.01939735226529577
aF0.18356381489636683
aF0.24146128980425363
aF0.0
aa(lp45
F-0.32625
aF2.581548978301015
aF0.44179724277194843
aF-0.4075
aa(lp46
F-0.5
aF-0.24363209317383783
aF0.6908471290852878
aF0.21745236979947835
aa(lp47
F-1.4878047799787066
aF2.4848066755900406
aF-1.646865388967071
aF1.0608051689091778
aa(lp48
F-1.0
aF2.7998948570516475
aF-0.5
aF-0.01606068533024224
aa(lp49
F-2.0023346320247155
aF3.7289882250694717
aF-0.14008165447359255
aF-0.7714964119734141
aa(lp50
F-1.0
aF-1.0
aF1.0783102227940655
aF-1.2595053079646825
aa(lp51
F-0.5
aF2.2383839143044386
aF0.0
aF0.0
aa(lp52
F3.0406857049273737
aF5.375704211075188
aF0.0
aF0.0
aa(lp53
F3.3528176172800404
aF0.0
aF3.392854768043163
aF6.830389217199402
aa(lp54
F0.0
aF3.879879937579654
aF4.617962583901756
aF7.341310763160144
aa(lp55
F5.9517704843159205
aF8.568063078379772
aF6.584905194506532
aF6.466655671909598
aa(lp56
F0.0
aF0.0
aF0.0
aF0.0
aa(lp57
F0.0
aF0.0
aF0.0
aF0.0
aa(lp58
F0.03378820947158426
aF-0.6318143114061541
aF0.6545566792211622
aF0.4471298135538205
aa(lp59
F-1.0793135298769563
aF1.8619955929214427
aF-0.4171700254639027
aF-0.4557982273331762
aa(lp60
F-1.6866604952036424
aF-0.8858474307439036
aF-1.6406500635181613
aF-1.9699621491893304
aa(lp61
F-2.2624999999999997
aF-2.354919661834989
aF-0.509279374058295
aF-1.950351371205167
aa(lp62
F-2.965
aF1.3292816634143243
aF-2.756125040686368
aF-2.0957458495874066
aa(lp63
F-3.573511336594053
aF-2.675
aF-2.326875
aF0.2945976986513512
aa(lp64
F-1.725
aF-1.3029737970536903
aF-1.641753012049357
aF-1.502050029431882
aa(lp65
F-0.5
aF-0.5
aF-1.911007704362459
aF3.385777765049088
aa(lp66
F0.02504396107355944
aF-0.25
aF-0.5
aF5.182656607104848
aa(lp67
F0.0
aF0.0
aF1.2570498828871486
aF4.523107280882562
aa(lp68
F3.604747549583985
aF4.474459278340073
aF0.0
aF6.28624855067654
aa(lp69
F4.713824325600712
aF8.065128622464918
aF4.827792772019086
aF4.656502867428011
aa(lp70
F0.0
aF0.0
aF0.0
aF0.0
aa(lp71
F0.0
aF0.0
aF0.0
aF0.0
aa(lp72
F0.05389546930171092
aF0.8520844072968674
aF0.3368379302710574
aF-0.2057082441403547
aa(lp73
F-0.6232424953843343
aF1.1225820815155412
aF-0.6615719079328055
aF-2.5386698376124737
aa(lp74
F-2.1621947114078117
aF-3.302933717746196
aF-1.7303965541030646
aF-3.6876805936887957
aa(lp75
F-3.9416542762419593
aF-1.4537350967375335
aF-3.867663943283612
aF-3.6950000000000003
aa(lp76
F-4.097159392294597
aF-1.9364954497578624
aF-4.86998464558177
aF-4.291874999999999
aa(lp77
F-3.7617159542227365
aF-1.2994965115931967
aF-4.128125
aF-3.0197920853387874
aa(lp78
F-1.45
aF-1.8025467614875414
aF-1.5
aF-0.44179810931511654
aa(lp79
F-1.0
aF-1.25
aF-1.725
aF0.03414414028745533
aa(lp80
F1.3288800880358895
aF2.2193194766391358
aF-0.18635942126464844
aF0.184023909092489
aa(lp81
F1.32789360814288
aF4.917882286919678
aF-0.4960458809528768
aF0.0
aa(lp82
F4.857114447152166
aF2.5116681874633207
aF2.2922918516256128
aF3.337869178859868
aa(lp83
F4.405917664928113
aF7.136265048788655
aF3.9854687851839943
aF4.3887926495390435
aa(lp84
F0.0
aF0.0
aF0.0
aF0.0
aa(lp85
F0.0
aF0.0
aF0.0
aF0.0
aa(lp86
F-0.061047682681298066
aF-0.5934745687636205
aF-0.6238481791065622
aF-0.5438918142663296
aa(lp87
F-2.0611709149158695
aF0.3324232134947532
aF-0.977971268262863
aF-1.2442929539369831
aa(lp88
F-2.8147442729206054
aF-1.2682805956357692
aF-0.2781856362763506
aF-3.036322208929693
aa(lp89
F-3.8419740722656255
aF-2.7034931973805296
aF-3.9089336220261246
aF-4.5473594948933425
aa(lp90
F-4.046720205078126
aF-4.343125
aF-4.272204459206089
aF-2.9794609803375414
aa(lp91
F-2.45
aF-2.77625
aF-2.959840695701523
aF-0.92869135266844
aa(lp92
F-2.2
aF-2.30125
aF-3.1624999999999996
aF-0.9094054898582237
aa(lp93
F-0.5
aF-1.25
aF-1.0
aF1.986530861949341
aa(lp94
F-0.5
aF-0.3343784818167599
aF-0.5
aF4.0185533214511535
aa(lp95
F2.7441176558006655
aF0.7116099237015295
aF0.0
aF0.0
aa(lp96
F2.243151993813994
aF4.786180482472236
aF1.2490432470244153
aF3.546113831213103
aa(lp97
F3.869417289902311
aF6.004384496988642
aF3.912994391079793
aF3.793581852537103
aa(lp98
F0.0
aF0.0
aF0.0
aF0.0
aa(lp99
F0.0
aF0.0
aF0.0
aF0.0
aa(lp100
F0.22402662900398876
aF-0.6257871029837443
aF-0.7978444240316959
aF-0.3874444233568125
aa(lp101
F0.2087000936894241
aF-0.8943615027843572
aF-0.11554074418289906
aF-2.581495575374487
aa(lp102
F-2.6486864860128243
aF-2.795183805341729
aF-0.2752846486886791
aF-3.74582700144621
aa(lp103
F-2.669022068215753
aF-3.542803330078125
aF-1.0037761825712759
aF-4.187434553433288
aa(lp104
F-3.891084777448102
aF-4.414212594032843
aF-3.0853201104189765
aF-4.1723880496399035
aa(lp105
F-2.4631605576853177
aF-2.6145482080661173
aF-3.1438154101562503
aF-2.3756208041824247
aa(lp106
F-1.25
aF-2.175
aF-1.5
aF-0.12993254617037986
aa(lp107
F0.7356735892130136
aF-1.475
aF-0.75
aF-0.7744128975327574
aa(lp108
F1.6956688977573002
aF-0.5
aF0.0
aF0.0
aa(lp109
F1.3122123270501205
aF2.1482388742114695
aF0.0
aF3.6050213486968588
aa(lp110
F3.6176019422591357
aF3.315159338557426
aF0.0
aF3.7040218475396376
aa(lp111
F3.5368053347463184
aF4.6987238173090775
aF3.567152422448694
aF3.72982723679894
aa(lp112
F0.0
aF0.0
aF0.0
aF0.0
aa(lp113
F0.0
aF0.0
aF0.0
aF0.0
aa(lp114
F0.4499168439535367
aF-0.7332135018512422
aF-0.09867441452598974
aF-0.6499919271621357
aa(lp115
F0.6607003486239902
aF-0.731474252828442
aF-0.7769745931654419
aF-1.2007046238889096
aa(lp116
F0.4205521510021921
aF-2.2230815504280717
aF-1.3212773018322004
aF-1.5088983973843528
aa(lp117
F-3.6924297623396614
aF-3.7490042426113277
aF-2.8019101996885674
aF-3.1045637981921397
aa(lp118
F-0.9703355712424008
aF-4.124496490896352
aF-1.9648957550461348
aF-2.0751943160381656
aa(lp119
F-0.49263666497584235
aF-3.1844708205829364
aF-2.012395179830456
aF-1.5556370785083522
aa(lp120
F-0.5
aF-1.4582596456649388
aF-1.0
aF0.7246218924617195
aa(lp121
F-0.7471381561982432
aF-0.75
aF-1.225
aF1.3384246603343375
aa(lp122
F0.6795914784535041
aF1.46764957410155
aF-0.725
aF2.6869493769046127
aa(lp123
F0.0
aF2.566328142966917
aF1.790749257945119
aF1.6647368036603818
aa(lp124
F2.476353239170496
aF3.555381364312686
aF3.10521424113
aF3.524060368407752
aa(lp125
F3.036763263795998
aF3.0165366209064013
aF3.5769986079172797
aF3.049069683134144
aa(lp126
F0.0
aF0.0
aF0.0
aF0.0
aa(lp127
F0.0
aF0.0
aF0.0
aF0.0
aa(lp128
F0.516484940608381
aF0.10538702851226761
aF0.17509122567735302
aF0.03649827065735328
aa(lp129
F0.7576389437325992
aF-0.2157431661620208
aF-0.3192788634519613
aF-0.4743629768496912
aa(lp130
F0.9760497824255716
aF-0.9093594253861839
aF-0.19226130880382675
aF-1.1336808517898898
aa(lp131
F0.9516365253924455
aF-2.632338732880183
aF-2.033590372240284
aF-1.9021615747344651
aa(lp132
F0.770536938867288
aF-1.905313074380155
aF-1.423662393624472
aF-1.7760866737234453
aa(lp133
F0.5256113926228325
aF-1.0
aF-0.6971477763969076
aF-1.041251805717128
aa(lp134
F1.6313252302521555
aF-1.9896681109062073
aF-0.8375
aF-0.531482610870675
aa(lp135
F0.14085367725332154
aF-0.5
aF-0.5
aF2.173658406724927
aa(lp136
F2.596282164273297
aF0.9764616852166653
aF0.6115293813612639
aF1.0903925347988541
aa(lp137
F0.0
aF2.3226781002876957
aF1.276895101304444
aF2.5158535523680303
aa(lp138
F2.3188197870894802
aF2.6322749715994926
aF2.609809610743742
aF2.4958540753143676
aa(lp139
F2.372896209333533
aF2.8907426811218815
aF2.30129550252234
aF2.2602272389232114
aa(lp140
F0.0
aF0.0
aF0.0
aF0.0
aa(lp141
F0.0
aF0.0
aF0.0
aF0.0
aa(lp142
F0.822541950138754
aF0.25248593496564287
aF0.18548335957173115
aF0.08386172874699072
aa(lp143
F0.4843080661118281
aF-0.06925062544515093
aF0.8965839731357919
aF0.11087281003079355
aa(lp144
F1.317644716808584
aF-0.10152083156885136
aF-0.616473691424809
aF-0.06753205342021706
aa(lp145
F0.5013173046325319
aF-0.8940083109681967
aF0.16231139221798518
aF1.2816530862625004
aa(lp146
F1.551841789240701
aF-0.38316544389674606
aF0.5145906629464434
aF-0.01789134685837457
aa(lp147
F1.084336714313141
aF-0.08569863888437057
aF-0.025133633981213516
aF1.717054299846775
aa(lp148
F0.570507163586837
aF-0.35806988419582464
aF0.10668739056128007
aF2.426508061546295
aa(lp149
F1.6002729531143307
aF1.0308154834686518
aF0.43440215293783674
aF2.5844997602749236
aa(lp150
F2.0029798586331227
aF1.02199463068479
aF1.7428780728723061
aF2.628967843226878
aa(lp151
F2.3321781023570285
aF3.1350532429972855
aF2.0054265322365628
aF2.314619227419197
aa(lp152
F2.062419468177482
aF2.264692600044023
aF2.0370725558971237
aF2.409300585360108
aa(lp153
F2.0417690355317673
aF2.1016192695293965
aF2.0630109192919863
aF2.2990556464378074
aa(lp154
F0.0
aF0.0
aF0.0
aF0.0
aa(lp155
F0.0
aF0.0
aF0.0
aF0.0
aa(lp156
F0.8509566110733267
aF0.6406006656191534
aF0.3925266413321464
aF0.8089338123802127
aa(lp157
F0.8724025160323923
aF0.09624243150588421
aF0.6785989222173326
aF1.1728857267141672
aa(lp158
F0.9881229889879114
aF0.5858462259503447
aF0.6959828854112782
aF1.4677606770246028
aa(lp159
F1.18419266901205
aF0.649139823275123
aF0.8408351253707547
aF1.4506693936549706
aa(lp160
F0.5843495603684077
aF0.879906676963198
aF1.1117734522115175
aF1.4989922460330083
aa(lp161
F1.1315047836692167
aF1.557880535226344
aF1.1874226092967164
aF1.483323800083857
aa(lp162
F0.946062392829437
aF1.6992671525061729
aF1.3553077477772706
aF1.8333476838822362
aa(lp163
F1.103455149339067
aF1.7664735890363588
aF2.266573015305432
aF1.6018216425240253
aa(lp164
F1.7145063319691578
aF1.987977289260412
aF1.9154170777363957
aF2.2928459189965724
aa(lp165
F0.8338445286902878
aF2.905494695333556
aF1.627258581778226
aF1.688456474582713
aa(lp166
F1.6377456417897953
aF1.93289632711139
aF1.8990311699779725
aF1.9968471147958606
aa(lp167
F1.879064295184488
aF2.0046097332271096
aF1.9502159713459366
aF1.9941362675286145
aa(lp168
F0.0
aF0.0
aF0.0
aF0.0
aa(lp169
F0.0
aF0.0
aF0.0
aF0.0
aa(lp170
F0.6431076241484723
aF0.5965653856105935
aF0.4935990818914108
aF0.8087300249869134
aa(lp171
F0.7405669624305564
aF0.7232234390030987
aF0.5284554951820108
aF1.0971965678434383
aa(lp172
F0.6470367675294366
aF0.22276428574409812
aF0.8598511556453567
aF1.1929353736150732
aa(lp173
F1.128192372401438
aF1.1515116878785434
aF1.0485261409701565
aF0.938470989537449
aa(lp174
F0.5412414106380097
aF1.3930923964278579
aF1.1108550611818615
aF1.0743743309271423
aa(lp175
F1.0219693221979713
aF1.517208553182313
aF0.7957673549227031
aF0.8223337752557731
aa(lp176
F0.9638954498288183
aF0.7367721656381689
aF0.7474777927130052
aF1.4359365365347934
aa(lp177
F1.377194069966519
aF1.6874556643037957
aF0.9477956416514597
aF0.0
aa(lp178
F1.1923387688349056
aF1.3115004990759078
aF1.4373893417243329
aF2.1298694638371547
aa(lp179
F0.23285289092901942
aF1.9033698613654033
aF0.5494359357101525
aF1.2722480486056438
aa(lp180
F0.7778398321674047
aF2.3355258603540108
aF0.9607640643857638
aF1.4824804695130105
aa(lp181
F1.7298284210087194
aF2.401582705680548
aF0.21975463909129306
aF1.4526523119815364
aa(lp182
F0.0
aF0.0
aF0.0
aF0.0
aa(lp183
F0.0
aF0.0
aF0.0
aF0.0
aa(lp184
F0.0
aF0.0
aF0.0
aF0.0
aa(lp185
F0.0
aF0.0
aF0.0
aF0.0
aa(lp186
F0.0
aF0.0
aF0.0
aF0.0
aa(lp187
F0.0
aF0.0
aF0.0
aF0.0
aa(lp188
F0.0
aF0.0
aF0.0
aF0.0
aa(lp189
F0.0
aF0.0
aF0.0
aF0.0
aa(lp190
F0.0
aF0.0
aF0.0
aF0.0
aa(lp191
F0.0
aF0.0
aF0.0
aF0.0
aa(lp192
F0.0
aF0.0
aF0.0
aF0.0
aa(lp193
F0.0
aF0.0
aF0.0
aF0.0
aa(lp194
F0.0
aF0.0
aF0.0
aF0.0
aa(lp195
F0.0
aF0.0
aF0.0
aF0.0
aa(lp196
F0.0
aF0.0
aF0.0
aF0.0
aa.