(lp0
(lp1
F0.0
aF0.0
aF0.0
aF0.0
aa(lp2
F0.0
aF0.0
aF0.0
aF0.0
aa(lp3
F0.0
aF0.0
aF0.0
aF0.0
aa(lp4
F0.0
aF0.0
aF0.0
aF0.0
aa(lp5
F0.0
aF0.0
aF0.0
aF0.0
aa(lp6
F0.0
aF0.0
aF0.0
aF0.0
aa(lp7
F0.0
aF0.0
aF0.0
aF0.0
aa(lp8
F0.0
aF0.0
aF0.0
aF0.0
aa(lp9
F0.0
aF0.0
aF0.0
aF0.0
aa(lp10
F0.0
aF0.0
aF0.0
aF0.0
aa(lp11
F0.0
aF0.0
aF0.0
aF0.0
aa(lp12
F0.0
aF0.0
aF0.0
aF0.0
aa(lp13
F0.0
aF0.0
aF0.0
aF0.0
aa(lp14
F0.0
aF0.0
aF0.0
aF0.0
aa(lp15
F0.0
aF0.0
aF0.0
aF0.0
aa(lp16
F0.0
aF0.0
aF0.0
aF0.0
aa(lp17
F1.3316695391989684
aF0.0
aF0.0
aF0.0
aa(lp18
F1.1141499808369453
aF1.711991696665867
aF0.04410029040959885
aF2.4479691007717324
aa(lp19
F0.0
aF1.18315410349087
aF1.3660273758699253
aF2.3237045627415958
aa(lp20
F0.0
aF0.0
aF0.6522401174512573
aF2.2468464050583172
aa(lp21
F0.42937158698996947
aF1.165328232276297
aF0.0
aF1.9505045464800639
aa(lp22
F3.4144554292267486
aF2.538798392039066
aF1.8137383519333077
aF1.8127310795407405
aa(lp23
F6.357865629663627
aF2.6855687875203285
aF3.1037767526626827
aF2.4682437245390094
aa(lp24
F1.7691606692263386
aF0.0
aF1.790661022824754
aF3.2301594825867332
aa(lp25
F5.429088782787009
aF0.0
aF3.370174705384842
aF2.5120398808344113
aa(lp26
F3.6655678042046382
aF2.5226265462436706
aF1.328532345000441
aF0.0
aa(lp27
F1.295837939691981
aF0.0
aF3.3638872963537443
aF1.629070352568673
aa(lp28
F0.0
aF0.0
aF0.0
aF0.0
aa(lp29
F0.0
aF0.0
aF0.0
aF0.0
aa(lp30
F0.23212068376994022
aF0.0
aF0.5095436004156587
aF1.307791462581108
aa(lp31
F0.0
aF1.455919156185871
aF0.0
aF0.0
aa(lp32
F-0.4381878529299749
aF1.8963171075136551
aF0.021950725562853855
aF0.8518078755319873
aa(lp33
F-0.33030798239226694
aF-0.25
aF0.7272958103328128
aF2.0114454803946265
aa(lp34
F0.16388458395925176
aF3.125689197316544
aF-0.2536607147852999
aF1.0948839455921133
aa(lp35
F-0.725
aF2.0904835362051006
aF2.014544292783842
aF0.0
aa(lp36
F-0.375
aF2.0880721321827345
aF2.1552019994305676
aF0.0
aa(lp37
F-0.4061512659446623
aF2.4180206513500124
aF1.8828334053450886
aF5.27675430988709
aa(lp38
F7.349879166010547
aF0.0
aF2.3060685635991423
aF2.550972988828746
aa(lp39
F0.0
aF2.343275160793714
aF2.402742897271856
aF2.6245966236920673
aa(lp40
F3.489517015088592
aF2.5269943174016305
aF2.322227419345256
aF3.128185359797545
aa(lp41
F3.7737506802878626
aF2.1634318703894424
aF3.5131276662669793
aF2.6789590518292483
aa(lp42
F0.0
aF0.0
aF0.0
aF0.0
aa(lp43
F0.0
aF0.0
aF0.0
aF0.0
aa(lp44
F-0.17310316211287308
aF0.710960817608683
aF0.0
aF0.0
aa(lp45
F-0.007935177082504463
aF1.5226461935654312
aF0.37156546170233473
aF-0.07307671789348782
aa(lp46
F-0.89375
aF1.6684987657920995
aF-1.5343869025496981
aF-0.574417054421592
aa(lp47
F-1.0
aF1.7837110264228309
aF-0.5
aF-0.5
aa(lp48
F-1.7160258382651679
aF1.9010245850718954
aF-0.5856082560495426
aF-1.2112450688115068
aa(lp49
F0.0
aF2.094866326362977
aF-0.5
aF-0.75
aa(lp50
F-1.5
aF3.4861459384850866
aF-0.10157219652693372
aF-0.725
aa(lp51
F2.4254331104090516
aF4.092514878503808
aF0.0
aF-0.5
aa(lp52
F0.9723085451069847
aF0.0
aF5.998301387608497
aF8.712164571870233
aa(lp53
F0.0
aF0.0
aF0.0
aF0.0
aa(lp54
F4.053954714741053
aF3.8260555214909635
aF8.934779351518479
aF4.184619972989203
aa(lp55
F3.4362331209598276
aF3.2718611511318665
aF7.801155213909797
aF5.048755831378476
aa(lp56
F0.0
aF0.0
aF0.0
aF0.0
aa(lp57
F0.0
aF0.0
aF0.0
aF0.0
aa(lp58
F-0.22845729810645202
aF-0.6439693080299389
aF-0.40166098728905864
aF-0.2460043151933453
aa(lp59
F-1.430602544312707
aF-1.0181961991315132
aF-0.9916402026087002
aF-1.3303948408667434
aa(lp60
F-2.9976418594869845
aF-1.6719703716811831
aF0.09525751357107348
aF-2.2952382495862205
aa(lp61
F-2.332457499391131
aF-2.218243425380182
aF-1.5200229302692811
aF-2.5633654794265492
aa(lp62
F-3.3224549566705264
aF0.1344020016780737
aF-3.319899730248328
aF-2.3184001835000343
aa(lp63
F-2.86875
aF-1.8931913798393993
aF-2.673125
aF-1.3076641434811156
aa(lp64
F-1.95
aF1.6782905646971806
aF-1.0
aF-0.9334491118825103
aa(lp65
F-0.5
aF-0.5
aF-1.5
aF6.217919934649556
aa(lp66
F0.0
aF-0.21875
aF0.0
aF5.284588768355215
aa(lp67
F3.6099671651552327
aF6.106263719688553
aF4.857500290771982
aF3.0892988455487247
aa(lp68
F2.9599803309141692
aF2.6808132940748512
aF3.848851299925591
aF2.900784569058609
aa(lp69
F3.3472965311827965
aF6.5083153095480615
aF3.336410891765968
aF3.33381968314524
aa(lp70
F0.0
aF0.0
aF0.0
aF0.0
aa(lp71
F0.0
aF0.0
aF0.0
aF0.0
aa(lp72
F-0.6523758846518027
aF-0.277066054800302
aF-0.6054073145674082
aF-0.73882021799711
aa(lp73
F-1.8899556849414678
aF-0.31046904898808075
aF-1.0180656483308468
aF-3.0190205481639225
aa(lp74
F-2.5298056634564343
aF-2.6625206113452826
aF-0.42075649844689966
aF-3.92647573167618
aa(lp75
F-3.748701489082527
aF-1.9873315650904426
aF-4.054436531450227
aF-3.741875
aa(lp76
F-4.234821611756613
aF-3.926181978158069
aF-3.28125
aF-3.4164241295327455
aa(lp77
F-2.92840625
aF-0.29691269211885796
aF-3.688125
aF-2.9957400746872294
aa(lp78
F-1.5034946592921046
aF-0.7794502554961472
aF-1.5
aF-1.6885210353756508
aa(lp79
F0.8609591953712008
aF-0.707137006189696
aF-1.45
aF1.3039172318881946
aa(lp80
F-0.9123261323971086
aF-0.5
aF0.0
aF2.7914867067568547
aa(lp81
F2.80119721221032
aF0.0
aF0.10402202311618369
aF0.0
aa(lp82
F3.1043839686705876
aF2.7101756119858584
aF2.7758450715427894
aF2.489410474205336
aa(lp83
F2.304018708151852
aF4.512274821774722
aF2.342592337248599
aF2.8846751700488884
aa(lp84
F0.0
aF0.0
aF0.0
aF0.0
aa(lp85
F0.0
aF0.0
aF0.0
aF0.0
aa(lp86
F0.00031699617497393806
aF-0.2523804932691336
aF-0.8501647308760835
aF-0.9831433679016232
aa(lp87
F-1.3682535485638758
aF-1.4366925626561486
aF-0.5963302601698393
aF-1.6509565862269584
aa(lp88
F-2.7625572346336016
aF-3.1364690921230842
aF-2.715234872833137
aF-3.2112597095397675
aa(lp89
F-2.908914769324787
aF-3.316561051671065
aF-3.393741484793951
aF-4.679375
aa(lp90
F-4.4584126951172
aF-3.5578369688999976
aF-3.691680741410982
aF-4.406571975998981
aa(lp91
F-3.275
aF-3.55875
aF-4.002579605660193
aF-3.95576362809728
aa(lp92
F-2.5639433325219727
aF-1.823995253882664
aF-3.724093399420913
aF-3.102314464745545
aa(lp93
F-0.6742860882518646
aF-1.0
aF-1.0
aF0.5628690023379841
aa(lp94
F-0.5
aF-0.5
aF-0.5
aF2.8152266570432545
aa(lp95
F0.0
aF-0.5
aF-0.14264014208984366
aF2.520986740608619
aa(lp96
F1.1604760349177106
aF2.234460357990935
aF2.113208532251943
aF2.9846270356583577
aa(lp97
F2.0574660098842106
aF3.5307411013647823
aF2.1565583505542723
aF2.9152678020578424
aa(lp98
F0.0
aF0.0
aF0.0
aF0.0
aa(lp99
F0.0
aF0.0
aF0.0
aF0.0
aa(lp100
F-0.045398993684920064
aF-0.4470848858669828
aF-0.2880137497050026
aF-0.45846762476437675
aa(lp101
F0.21027913340531068
aF-1.8418835890382992
aF-1.645249554339464
aF-1.8777836492211288
aa(lp102
F-1.447674583878328
aF-1.8257867729464967
aF-1.0404109678006122
aF-2.707741528900903
aa(lp103
F-3.2605432622171135
aF-3.7730709455544233
aF-4.19493628415183
aF-4.3136812207389745
aa(lp104
F-3.0192354430911825
aF-3.2065549299522056
aF-3.7324624496423318
aF-3.07125
aa(lp105
F-2.456809159638781
aF-3.1125
aF-3.9967187500000003
aF-2.6809374999999998
aa(lp106
F-2.1875
aF-1.8375
aF-1.5
aF-1.9314826129512805
aa(lp107
F-0.1795111542616499
aF-0.8170977799546169
aF-1.0
aF-0.41587343139096067
aa(lp108
F0.0
aF-0.5
aF-0.5
aF-0.5
aa(lp109
F0.0
aF0.0
aF-0.5
aF2.096961705717782
aa(lp110
F1.9602097707298147
aF2.6429379294135558
aF1.7210693647195108
aF2.1017945035295016
aa(lp111
F1.781378138010651
aF3.035373444214357
aF1.8488350418315254
aF1.9060135867571093
aa(lp112
F0.0
aF0.0
aF0.0
aF0.0
aa(lp113
F0.0
aF0.0
aF0.0
aF0.0
aa(lp114
F-0.09588309774711645
aF-0.17446922806106818
aF-1.1835932337903032e-05
aF0.29820240250616825
aa(lp115
F-1.554675181373549
aF-0.7710870286727155
aF0.08110496815068126
aF-0.6045069299588341
aa(lp116
F-0.36313358111636185
aF-2.905170183952504
aF-1.6264955038027868
aF-1.74185655076313
aa(lp117
F-1.3718147434570493
aF-2.6567161124188705
aF-0.874164814886938
aF-2.5316289891363204
aa(lp118
F-0.7772110606273996
aF-2.037043160558913
aF-1.7098058825420186
aF-1.95
aa(lp119
F-0.20876192200728022
aF-1.5
aF-1.0
aF-1.5860632210533923
aa(lp120
F-0.4686709749665305
aF-1.0
aF-1.8448683192775621
aF-0.9221757449717805
aa(lp121
F-0.3270572110484008
aF-0.5
aF-0.5
aF0.0
aa(lp122
F0.11832626191008032
aF-0.5
aF-0.5
aF0.4080643883582267
aa(lp123
F1.1082210260009198
aF0.11342209682206196
aF0.0
aF1.6650923389584182
aa(lp124
F1.6089233944318302
aF2.1638205841548332
aF1.8367576951561522
aF1.6032373592118119
aa(lp125
F1.6732887631725082
aF2.5123870199826417
aF1.8604038081141905
aF2.093526575873333
aa(lp126
F0.0
aF0.0
aF0.0
aF0.0
aa(lp127
F0.0
aF0.0
aF0.0
aF0.0
aa(lp128
F0.45905869159454904
aF0.1633380198216322
aF0.3031655652682792
aF0.2098204978753901
aa(lp129
F0.6450640635845482
aF-0.11256473591609023
aF0.07732119638120455
aF-0.06800562203445099
aa(lp130
F0.2533755847274873
aF-2.6199127292930324
aF-0.365996957559114
aF-0.8624540692002735
aa(lp131
F0.5422010634942007
aF-2.098125
aF-0.8768915716355135
aF-0.8246498120544021
aa(lp132
F0.8458249349433578
aF-1.0
aF-0.775625
aF-0.5
aa(lp133
F-0.6242102937229268
aF-1.3324065460176677
aF-0.8683380585208617
aF0.05550317992013014
aa(lp134
F1.1280583314431332
aF-1.0
aF-0.48376396486514994
aF-0.5
aa(lp135
F-0.13098804799089214
aF-0.7968395886999622
aF-0.3018270377965313
aF1.659191032221326
aa(lp136
F1.6583560209666541
aF0.0
aF0.0019165083911246777
aF0.0
aa(lp137
F0.0
aF1.1614894564941844
aF0.5785852322066622
aF2.0334077010360545
aa(lp138
F1.2519233819945876
aF1.936845441856955
aF1.2822918663229292
aF1.4762171410770595
aa(lp139
F1.4116502875187467
aF2.2275156739671367
aF1.4107633563181718
aF1.3742401335781051
aa(lp140
F0.0
aF0.0
aF0.0
aF0.0
aa(lp141
F0.0
aF0.0
aF0.0
aF0.0
aa(lp142
F0.4694558317721495
aF0.2423592885170762
aF0.24132938782535193
aF0.0
aa(lp143
F0.7890258042370009
aF0.23651379426415214
aF0.3384497620214144
aF0.22142691539091358
aa(lp144
F0.6279259762992673
aF0.12867059779471562
aF0.08504185248341223
aF0.08958753505032613
aa(lp145
F0.09462681445757681
aF-0.46017546195534975
aF0.21458626126656588
aF0.4630647217559361
aa(lp146
F-0.0593009769541587
aF-0.841806870184123
aF0.0828976892565223
aF0.12961817772768658
aa(lp147
F1.1094205747217796
aF0.5126977578816225
aF0.3926078032508487
aF0.42520492411038147
aa(lp148
F1.0758434673719286
aF-0.07794196514977855
aF0.853434077209422
aF0.4498069534905071
aa(lp149
F-0.013434600206519764
aF0.25090678161638236
aF0.591238282984816
aF1.328890173330338
aa(lp150
F1.3608789441824016
aF0.5436946345247305
aF0.8298590672727267
aF0.7402596201875675
aa(lp151
F1.074496687813537
aF1.5375673480249874
aF0.9897320180939748
aF1.2290173006732115
aa(lp152
F1.3715702714020623
aF2.007057882095254
aF1.4116261841159685
aF1.2771960699413611
aa(lp153
F1.255323590438485
aF2.1928078485538323
aF1.2591641477813362
aF1.2542239226818173
aa(lp154
F0.0
aF0.0
aF0.0
aF0.0
aa(lp155
F0.0
aF0.0
aF0.0
aF0.0
aa(lp156
F0.3863705269384149
aF0.398191735749176
aF0.4106945053746832
aF0.5660678053511657
aa(lp157
F0.6202618318301185
aF0.3991236072676497
aF0.29907135019419373
aF0.30074843928364886
aa(lp158
F0.33029919599846647
aF0.5148917153048315
aF0.6695236800309788
aF0.8678123827274766
aa(lp159
F0.5674873023225068
aF0.7493422916055488
aF0.3455961052064603
aF0.9995007021906867
aa(lp160
F0.3463258362804905
aF0.7758047141171136
aF0.8632723913160054
aF0.9896941464433099
aa(lp161
F1.0315245910449238
aF0.8824168685175826
aF0.7579780064321668
aF1.0937403134896142
aa(lp162
F0.600486499589671
aF0.8900647673225666
aF0.9398357007321211
aF1.0953424100522064
aa(lp163
F1.172320702006817
aF0.939356496155944
aF1.0475896953554005
aF1.585080903140836
aa(lp164
F1.1543051423660036
aF1.2037778000416202
aF1.2632843294174674
aF1.1159750218972349
aa(lp165
F1.1423347642952575
aF1.7991409626751542
aF1.1610251622535244
aF1.241870069259099
aa(lp166
F1.2714603457944003
aF1.6554919199765765
aF1.2332818222585182
aF1.289006951095672
aa(lp167
F1.2003756834862442
aF1.4482501236272358
aF1.2198381745372142
aF1.1781747982867492
aa(lp168
F0.0
aF0.0
aF0.0
aF0.0
aa(lp169
F0.0
aF0.0
aF0.0
aF0.0
aa(lp170
F0.46482122292796035
aF0.241206743993641
aF0.4883766829080812
aF0.5994728582553068
aa(lp171
F0.5572339845343084
aF0.5305394587884235
aF0.559941966902137
aF0.5344774383624641
aa(lp172
F0.3718720040860442
aF0.7825123506150748
aF0.48225221918126193
aF0.6320644744678363
aa(lp173
F0.8928527493858297
aF0.5995881337719007
aF0.576407587069076
aF0.7337444830847821
aa(lp174
F0.38820028586511546
aF0.40485205356339543
aF0.22741591653827306
aF1.1119993500060852
aa(lp175
F0.3680628796981307
aF0.7986360220832852
aF0.6614128032642699
aF1.2731007020141325
aa(lp176
F0.8223087998629179
aF0.5149807894060089
aF0.8327599081187481
aF1.1836092529361308
aa(lp177
F0.824797642805507
aF1.2749844019536862
aF0.743070969367926
aF0.8681603745094593
aa(lp178
F1.0903762289737495
aF1.5946482240533997
aF0.9518111074923215
aF0.8162426900493758
aa(lp179
F0.7167483276520714
aF1.0335474353473098
aF1.2054902500184281
aF0.8028864888539945
aa(lp180
F0.5274744720370269
aF1.3276415296264392
aF0.9648465850056935
aF1.1191783215522362
aa(lp181
F0.8842127492092294
aF1.1018384112478028
aF1.3010538232205018
aF1.0454761844067653
aa(lp182
F0.0
aF0.0
aF0.0
aF0.0
aa(lp183
F0.0
aF0.0
aF0.0
aF0.0
aa(lp184
F0.0
aF0.0
aF0.0
aF0.0
aa(lp185
F0.0
aF0.0
aF0.0
aF0.0
aa(lp186
F0.0
aF0.0
aF0.0
aF0.0
aa(lp187
F0.0
aF0.0
aF0.0
aF0.0
aa(lp188
F0.0
aF0.0
aF0.0
aF0.0
aa(lp189
F0.0
aF0.0
aF0.0
aF0.0
aa(lp190
F0.0
aF0.0
aF0.0
aF0.0
aa(lp191
F0.0
aF0.0
aF0.0
aF0.0
aa(lp192
F0.0
aF0.0
aF0.0
aF0.0
aa(lp193
F0.0
aF0.0
aF0.0
aF0.0
aa(lp194
F0.0
aF0.0
aF0.0
aF0.0
aa(lp195
F0.0
aF0.0
aF0.0
aF0.0
aa(lp196
F0.0
aF0.0
aF0.0
aF0.0
aa.