(lp0
(lp1
F0.0
aF0.0
aF0.0
aF0.0
aa(lp2
F0.0
aF0.0
aF0.0
aF0.0
aa(lp3
F0.0
aF0.0
aF0.0
aF0.0
aa(lp4
F0.0
aF0.0
aF0.0
aF0.0
aa(lp5
F0.0
aF0.0
aF0.0
aF0.0
aa(lp6
F0.0
aF0.0
aF0.0
aF0.0
aa(lp7
F0.0
aF0.0
aF0.0
aF0.0
aa(lp8
F0.0
aF0.0
aF0.0
aF0.0
aa(lp9
F0.0
aF0.0
aF0.0
aF0.0
aa(lp10
F0.0
aF0.0
aF0.0
aF0.0
aa(lp11
F0.0
aF0.0
aF0.0
aF0.0
aa(lp12
F0.0
aF0.0
aF0.0
aF0.0
aa(lp13
F0.0
aF0.0
aF0.0
aF0.0
aa(lp14
F0.0
aF0.0
aF0.0
aF0.0
aa(lp15
F0.0
aF0.0
aF0.0
aF0.0
aa(lp16
F0.31457495739436026
aF0.0
aF0.0
aF0.0
aa(lp17
F2.289038171348375
aF0.24849690490269383
aF0.0
aF0.0
aa(lp18
F3.696646762048062
aF1.7535423965659735
aF0.8575860394424755
aF0.5962339110302107
aa(lp19
F3.8086107214472626
aF2.5164806726722766
aF0.821825869094201
aF2.9221704665616213
aa(lp20
F2.7056246428013786
aF2.511065213835455
aF0.0
aF5.327335707930844
aa(lp21
F4.1646098355956
aF3.8094033310913367
aF2.475125971306273
aF6.375322667060095
aa(lp22
F5.1947968930034225
aF6.052984105082057
aF3.612873309711354
aF6.253047516781196
aa(lp23
F3.3652767223036313
aF5.480713043836696
aF5.219020695293384
aF8.073461360376053
aa(lp24
F6.698173236586829
aF6.096019111293813
aF7.040263708633454
aF8.859808981129621
aa(lp25
F7.975022812770725
aF6.9066947090798365
aF6.709095143591229
aF9.271465466118434
aa(lp26
F5.542853542714486
aF8.69414228153334
aF8.320186769466833
aF9.999875250945422
aa(lp27
F0.0
aF0.0
aF0.0
aF0.0
aa(lp28
F0.0
aF0.0
aF0.0
aF0.0
aa(lp29
F0.0
aF0.0
aF0.0
aF0.0
aa(lp30
F0.0
aF0.0
aF0.0
aF1.0693601246351299
aa(lp31
F-0.4206332254192465
aF2.531549740599809
aF0.3298357519122669
aF-0.279555265454119
aa(lp32
F1.0305387347185335
aF2.892217335488417
aF1.7164240456059008
aF0.05992332358417962
aa(lp33
F1.9066327993429832
aF2.4164175292027688
aF2.307639324231624
aF1.6602866229164657
aa(lp34
F1.35731114260451
aF2.3349023912159033
aF0.0
aF4.260369361447471
aa(lp35
F2.373711712737533
aF5.163414676729689
aF2.741641141884711
aF0.47418895346574275
aa(lp36
F1.4930243727807255
aF6.1564672624915815
aF-0.029299239194255366
aF2.142575707444275
aa(lp37
F0.849260615136984
aF6.945109789762181
aF2.831253188383371
aF3.379181839942428
aa(lp38
F1.9223547507866092
aF8.057798839568695
aF4.7112972083702225
aF3.3153158792057487
aa(lp39
F0.0
aF7.602946652613312
aF0.0
aF0.0
aa(lp40
F5.682447417494073
aF9.17995620156578
aF5.969167546615299
aF6.252340843662985
aa(lp41
F6.741391163110989
aF9.99999988079071
aF8.51498765727874
aF8.84508471704267
aa(lp42
F0.0
aF0.0
aF0.0
aF0.0
aa(lp43
F0.0
aF0.0
aF0.0
aF0.0
aa(lp44
F1.0126916393601622
aF-0.04936009217227444
aF-0.0009316285400390626
aF-0.007505515370968217
aa(lp45
F0.5033740425302249
aF2.056577804719249
aF0.5072492763966109
aF1.003671514300589
aa(lp46
F-1.2459668730673639
aF3.446596897965309
aF0.1685541007457183
aF1.2023718610721672
aa(lp47
F-1.4321923974365234
aF-0.015227608713173968
aF0.006149429250878913
aF0.8726562610808842
aa(lp48
F-1.4740036247927195
aF3.376635072690126
aF0.0
aF1.1857655375432699
aa(lp49
F-1.6597118393066406
aF4.241652955299285
aF0.3978984014662581
aF-0.5
aa(lp50
F-1.0
aF3.997481340855227
aF-0.75
aF1.4789652919227405
aa(lp51
F-0.5
aF5.206267776384625
aF-1.6
aF-0.04639728088378908
aa(lp52
F0.0
aF0.0
aF0.0
aF6.477540712876485
aa(lp53
F0.0
aF0.0
aF0.0
aF7.556933740181487
aa(lp54
F5.360848613272321
aF6.886520568958618
aF0.0
aF3.8511793313537197
aa(lp55
F5.9474894518748
aF7.8945492524291545
aF6.724898690672994
aF6.503014009560172
aa(lp56
F0.0
aF0.0
aF0.0
aF0.0
aa(lp57
F0.0
aF0.0
aF0.0
aF0.0
aa(lp58
F0.6351116679072185
aF0.3717432572863337
aF0.401078689807722
aF1.723232419819833
aa(lp59
F-0.8099655751955133
aF2.069539356746664
aF0.35872564236376836
aF-0.6142872981870354
aa(lp60
F-0.9799422587047706
aF0.09185619743990825
aF0.7694230079650978
aF-0.8757645455187397
aa(lp61
F-1.6688057799757923
aF-1.9390055628303473
aF0.8228089674979411
aF-1.4245925169392524
aa(lp62
F-1.5
aF2.8847706687635792
aF-0.5953443722699684
aF-1.33468028504896
aa(lp63
F-2.475
aF3.929290656194236
aF-2.52985591965332
aF-1.866506577392578
aa(lp64
F-1.95
aF1.558598163645097
aF-1.0
aF-0.75
aa(lp65
F-0.3191500255772974
aF-1.1222985301892865
aF-1.5
aF-1.4561257275390624
aa(lp66
F0.0
aF-0.5
aF0.45265635140388927
aF2.2999977340748723
aa(lp67
F0.0
aF0.0
aF0.0
aF4.467292570391223
aa(lp68
F5.113819638792995
aF1.5175842611520227
aF2.5178943361295136
aF7.033098378497417
aa(lp69
F4.633311984169578
aF7.094036047372267
aF5.794322775302842
aF6.100292115135083
aa(lp70
F0.0
aF0.0
aF0.0
aF0.0
aa(lp71
F0.0
aF0.0
aF0.0
aF0.0
aa(lp72
F-0.38812500000000005
aF1.4824190748325417
aF-0.01142874650604278
aF-0.3488815683239561
aa(lp73
F-1.279523439633034
aF1.702696270621228
aF-0.257897630078665
aF-1.1604836816969941
aa(lp74
F-2.7251100620451467
aF1.2370740072650654
aF-1.7379001762148227
aF-2.052649483284214
aa(lp75
F-3.9195084716796877
aF0.3694704031423649
aF-2.6424489612662105
aF-3.6374999999999997
aa(lp76
F-4.155113557228382
aF0.5787182663808373
aF-3.921995533565345
aF-3.3581203276879883
aa(lp77
F-2.7
aF-1.975
aF-2.1165074281381737
aF-1.7247292392578124
aa(lp78
F-1.725
aF-1.7080131547851563
aF-1.95
aF-1.867536793515192
aa(lp79
F-1.0
aF-1.5540654109243281
aF0.0
aF0.14418393939063673
aa(lp80
F1.652904764944719
aF-0.5
aF-1.4830131547851564
aF0.0
aa(lp81
F0.0
aF0.0
aF1.0788532262633805
aF2.520505932485822
aa(lp82
F1.9069771224368401
aF6.594300526672962
aF0.28490660578529503
aF1.9057306244940466
aa(lp83
F4.879222304760264
aF6.244371111030604
aF2.096904043875892
aF5.630879872047441
aa(lp84
F0.0
aF0.0
aF0.0
aF0.0
aa(lp85
F0.0
aF0.0
aF0.0
aF0.0
aa(lp86
F-0.6178478987096627
aF1.3650692644601388
aF0.022341954482614335
aF-0.8808236832694911
aa(lp87
F0.12619184212208354
aF-1.4611170315649304
aF-1.5201032134707022
aF-1.8484146867725118
aa(lp88
F-2.786621388765941
aF-3.3934576370832055
aF-2.277073180074139
aF-3.256522476651508
aa(lp89
F-3.017673782213363
aF-3.3854903603820374
aF-1.8603620087887083
aF-3.6081059388197954
aa(lp90
F-4.247861634767647
aF-3.72625
aF-4.480846955665881
aF-3.7953974043659824
aa(lp91
F-2.2
aF-2.7
aF-2.99625
aF-1.725
aa(lp92
F-1.5646723676845755
aF-1.95
aF-1.475
aF-1.25
aa(lp93
F-0.04201579646681097
aF-1.0
aF-1.0
aF-0.725
aa(lp94
F-0.5
aF-0.5
aF-0.5
aF2.9585452237566674
aa(lp95
F0.0
aF0.0
aF-0.5
aF3.6428499451503433
aa(lp96
F3.1418618329091594
aF0.0
aF0.0
aF4.7082165058208485
aa(lp97
F3.3288120914690253
aF5.590509609620721
aF4.016194736825548
aF4.721468026424716
aa(lp98
F0.0
aF0.0
aF0.0
aF0.0
aa(lp99
F0.0
aF0.0
aF0.0
aF0.0
aa(lp100
F0.35700491500484166
aF0.3081632736393151
aF-0.37708107162405796
aF-1.4405784202819047
aa(lp101
F-0.020693571920152865
aF-1.107173305011129
aF0.3449225334532783
aF-1.55059375
aa(lp102
F-1.7563581836711721
aF-2.277171271922736
aF-0.052337169092014885
aF-3.393949604636445
aa(lp103
F-3.808125
aF-3.8716356903014812
aF-0.8316006814617317
aF-2.7245858962951885
aa(lp104
F-2.9579957164468405
aF-4.1870705078125
aF-3.773548778358178
aF-3.5
aa(lp105
F-1.9850608958193565
aF-2.6875
aF-3.4
aF-1.7767588346421546
aa(lp106
F0.27416085700985793
aF-1.0
aF-1.95
aF-0.3886763053024035
aa(lp107
F0.0
aF-0.6020855349305181
aF0.0
aF1.0653876494041346
aa(lp108
F0.0
aF-0.5
aF0.5542734288063502
aF1.2490494841793196
aa(lp109
F0.0
aF3.1636437260368564
aF0.0
aF0.0
aa(lp110
F1.4696789987815657
aF2.0727026877682686
aF1.5984978757628971
aF4.854272214247093
aa(lp111
F3.168246449619522
aF5.072284452857522
aF3.486041906686359
aF3.7426858783109065
aa(lp112
F0.0
aF0.0
aF0.0
aF0.0
aa(lp113
F0.0
aF0.0
aF0.0
aF0.0
aa(lp114
F0.4139343873302773
aF0.12313427341489902
aF0.12049627690175217
aF-0.20762457478519314
aa(lp115
F0.4924405580457908
aF-0.17663213643385445
aF-0.5394615230897397
aF-1.0193172923794303
aa(lp116
F0.4073343646370449
aF-1.0303942601980955
aF-1.4721956666889568
aF-2.404044823106183
aa(lp117
F-0.155628563007938
aF-2.5094190400264407
aF-2.577617068995905
aF-2.3768934018743515
aa(lp118
F-0.48935362015770684
aF-3.13875
aF-2.0875
aF-2.4628125
aa(lp119
F-1.7811484284620418
aF-2.7
aF-2.34125
aF-0.6446914283227846
aa(lp120
F-0.04447868230479435
aF-1.0
aF-1.225
aF-0.5985794796720785
aa(lp121
F-0.5
aF-0.17465612846895662
aF-0.5
aF0.7786600247413441
aa(lp122
F-0.323969982751858
aF-0.08982735319341922
aF-0.5
aF2.678998905612288
aa(lp123
F0.0
aF2.144355076918743
aF1.541418183993803
aF3.602870840868463
aa(lp124
F3.0853504305573143
aF4.309618198999992
aF2.2813356261117628
aF3.016404528638785
aa(lp125
F2.787167596174487
aF4.474080111420442
aF2.7568260961863733
aF3.290878558297252
aa(lp126
F0.0
aF0.0
aF0.0
aF0.0
aa(lp127
F0.0
aF0.0
aF0.0
aF0.0
aa(lp128
F0.7411420265202391
aF-0.05162196511812127
aF0.3757325383787991
aF0.13574305295582328
aa(lp129
F-0.363551902388479
aF-0.3756570838497458
aF-0.23360474700061684
aF0.6083047208098822
aa(lp130
F0.864143687164262
aF-1.088821952154717
aF0.11313441424778388
aF-0.3920497166064765
aa(lp131
F1.0129732848807906
aF-1.45
aF-1.8128865987312852
aF-1.4620620741999466
aa(lp132
F1.1778144336717986
aF-1.0
aF-0.45370831860981564
aF-0.95
aa(lp133
F-1.1268929828060132
aF-2.466893624774319
aF-1.0749684423343926
aF0.36662261636949844
aa(lp134
F-0.2981405869349041
aF-1.3625
aF-0.5
aF0.40470646887726736
aa(lp135
F2.3106960485663315
aF-0.5
aF-0.5
aF1.517605643683075
aa(lp136
F2.237191789634581
aF1.26294034493348
aF0.4135256178307624
aF1.3651989732231082
aa(lp137
F1.3590811596709493
aF2.2419830971863215
aF2.2874058711895398
aF2.3676866294083245
aa(lp138
F2.3870016373934995
aF3.1121470842034418
aF2.064214146482396
aF3.2876525438301933
aa(lp139
F2.163342548458834
aF3.870223084188891
aF3.262486938709892
aF3.2975944520691347
aa(lp140
F0.0
aF0.0
aF0.0
aF0.0
aa(lp141
F0.0
aF0.0
aF0.0
aF0.0
aa(lp142
F0.7843524477462553
aF0.0
aF0.0
aF0.0
aa(lp143
F0.5050830425598203
aF-0.023593110961746724
aF0.30214349846359495
aF0.9647943911984239
aa(lp144
F0.8283514683652646
aF0.11938936748518462
aF-0.03726044745537027
aF-0.05692823362326105
aa(lp145
F1.2296583438626492
aF0.20046487855574385
aF0.5313042202069438
aF-0.44778579395023455
aa(lp146
F1.1161252633623862
aF-0.583054503999942
aF0.4494281545212956
aF0.757906163908191
aa(lp147
F0.8984264174205637
aF-0.22451021064650883
aF0.557678624572425
aF1.4531124675577929
aa(lp148
F1.5108609569340619
aF0.9664089420120401
aF1.294121376496322
aF1.3419967151769125
aa(lp149
F1.2888993280093362
aF0.745710576016955
aF1.4951249988571287
aF2.6712143182822956
aa(lp150
F1.372418334366247
aF1.0247049209703905
aF1.5620282454840115
aF2.7409773759956355
aa(lp151
F2.704957959043284
aF1.4625035827534139
aF1.8853669346652229
aF3.0184131447136435
aa(lp152
F1.803944599862747
aF3.475305972502026
aF1.9052814792663555
aF2.6114332877214395
aa(lp153
F2.440859579750565
aF3.4711992804074026
aF2.4166465642382295
aF2.4301134130806026
aa(lp154
F0.0
aF0.0
aF0.0
aF0.0
aa(lp155
F0.0
aF0.0
aF0.0
aF0.0
aa(lp156
F0.6411975991383075
aF0.6175429390961283
aF0.7033496981919569
aF0.6980540189088207
aa(lp157
F0.7549943150054881
aF0.6757799320751583
aF0.6511724308871001
aF0.9296181587843586
aa(lp158
F0.7473097446035101
aF0.8604253223529911
aF0.8126373476562712
aF0.8260780294291565
aa(lp159
F0.6934194182900741
aF0.9776406813519297
aF0.8683740562309727
aF1.5006092557990522
aa(lp160
F0.8594346785831357
aF0.7227882643863777
aF0.8412324069544388
aF1.3833996680004672
aa(lp161
F1.2243833817166085
aF0.7884484722642725
aF0.9764331064995815
aF1.9460131637671665
aa(lp162
F0.8296818151754211
aF1.9720981315915727
aF1.2056386148367355
aF1.4233568159320316
aa(lp163
F1.2857351062854625
aF2.3296317311915034
aF0.9086447052388034
aF1.3619111110629563
aa(lp164
F0.8717759677589787
aF1.640092580336789
aF1.4328462026531092
aF2.7565137126014454
aa(lp165
F0.3089546483668311
aF2.2119532829795907
aF1.4803542598316244
aF1.179762079851161
aa(lp166
F1.381728282488036
aF3.1251411331914527
aF1.0057887736500912
aF1.9271324546499549
aa(lp167
F1.6631904904229964
aF2.955772602793489
aF1.8569652315392369
aF1.812439239252945
aa(lp168
F0.0
aF0.0
aF0.0
aF0.0
aa(lp169
F0.0
aF0.0
aF0.0
aF0.0
aa(lp170
F0.6725763577275843
aF0.8092062374712236
aF0.42037954008548956
aF0.49280926484042015
aa(lp171
F0.6040407272526807
aF0.9650439834570145
aF0.5478854085606506
aF0.43112602903342495
aa(lp172
F0.5549821510047908
aF0.9241174062624172
aF0.37057229081814824
aF0.0
aa(lp173
F0.6856606509764136
aF0.5353795009805495
aF0.576166386133216
aF1.2790818668184678
aa(lp174
F0.6518624001166677
aF1.0374743496031136
aF0.9164374016105719
aF1.2112594811579784
aa(lp175
F0.9934788756950966
aF1.5997763342840852
aF1.2451771104481075
aF1.2305832675824324
aa(lp176
F0.7762198799227913
aF1.0281262912463522
aF1.426366892777459
aF1.1631025281093055
aa(lp177
F1.1164369368391451
aF1.0903108002239241
aF1.110929734721915
aF1.1420171597063105
aa(lp178
F0.7246098379988306
aF2.225703128035361
aF1.0474494089675666
aF0.6128405651208888
aa(lp179
F0.7787740139580449
aF2.136644841327305
aF0.0
aF0.0
aa(lp180
F0.0
aF2.1627206861357093
aF0.0
aF0.0
aa(lp181
F0.0
aF2.5246655105875653
aF0.0
aF0.35838246562256815
aa(lp182
F0.0
aF0.0
aF0.0
aF0.0
aa(lp183
F0.0
aF0.0
aF0.0
aF0.0
aa(lp184
F0.0
aF0.0
aF0.0
aF0.0
aa(lp185
F0.0
aF0.0
aF0.0
aF0.0
aa(lp186
F0.0
aF0.0
aF0.0
aF0.0
aa(lp187
F0.0
aF0.0
aF0.0
aF0.0
aa(lp188
F0.0
aF0.0
aF0.0
aF0.0
aa(lp189
F0.0
aF0.0
aF0.0
aF0.0
aa(lp190
F0.0
aF0.0
aF0.0
aF0.0
aa(lp191
F0.0
aF0.0
aF0.0
aF0.0
aa(lp192
F0.0
aF0.0
aF0.0
aF0.0
aa(lp193
F0.0
aF0.0
aF0.0
aF0.0
aa(lp194
F0.0
aF0.0
aF0.0
aF0.0
aa(lp195
F0.0
aF0.0
aF0.0
aF0.0
aa(lp196
F0.0
aF0.0
aF0.0
aF0.0
aa.