(lp0
(lp1
F0.0
aF0.0
aF0.0
aF0.0
aa(lp2
F0.0
aF0.0
aF0.0
aF0.0
aa(lp3
F0.0
aF0.0
aF0.0
aF0.0
aa(lp4
F0.0
aF0.0
aF0.0
aF0.0
aa(lp5
F0.0
aF0.0
aF0.0
aF0.0
aa(lp6
F0.0
aF0.0
aF0.0
aF0.0
aa(lp7
F0.0
aF0.0
aF0.0
aF0.0
aa(lp8
F0.0
aF0.0
aF0.0
aF0.0
aa(lp9
F0.0
aF0.0
aF0.0
aF0.0
aa(lp10
F0.0
aF0.0
aF0.0
aF0.0
aa(lp11
F0.0
aF0.0
aF0.0
aF0.0
aa(lp12
F0.0
aF0.0
aF0.0
aF0.0
aa(lp13
F0.0
aF0.0
aF0.0
aF0.0
aa(lp14
F0.0
aF0.0
aF0.0
aF0.0
aa(lp15
F0.0
aF0.0
aF0.0
aF0.0
aa(lp16
F-0.0008795684056383262
aF-0.0006993950979508855
aF-0.0007435517924759496
aF-0.000775938053369697
aa(lp17
F-0.004584105986263451
aF-0.002391538553149045
aF-0.006740579805952292
aF-0.002807934316793636
aa(lp18
F-0.09181680173751704
aF-0.033851820852883574
aF-0.017238136067611286
aF-0.055698861160531764
aa(lp19
F-0.015140779116500335
aF-0.06230608084698287
aF-0.007739832617190681
aF-0.036855064428501914
aa(lp20
F-0.1556700384353096
aF-0.04573284461616385
aF-0.03809073666081316
aF-0.015863324918736862
aa(lp21
F-0.1125
aF-0.05411697063570583
aF-0.15248584115784253
aF-0.020674817333569885
aa(lp22
F-0.032653252659872144
aF-0.10734984927110125
aF-0.039556499104275146
aF-0.020087077578023103
aa(lp23
F-0.056372767686627634
aF-0.06013786499647058
aF-0.04112507041810494
aF-0.007266496670255827
aa(lp24
F-0.02910674729003906
aF-0.05151886922326685
aF-0.026449686605176582
aF-0.0016610739679931825
aa(lp25
F-0.0036058497126610772
aF-0.002342390012030972
aF-0.025926088477878258
aF-0.0018143977319424224
aa(lp26
F-0.003115106956147447
aF-0.0033876541953189137
aF-0.00519858399010954
aF-0.0015101954646254921
aa(lp27
F-0.0038656812556552246
aF-0.0011679721806431968
aF-0.003152187010508415
aF-0.0024168038927700475
aa(lp28
F0.0
aF0.0
aF0.0
aF0.0
aa(lp29
F0.0
aF0.0
aF0.0
aF0.0
aa(lp30
F-0.004190737803338639
aF-0.000737688141941219
aF-0.002721125273796872
aF-0.003777032824298133
aa(lp31
F-0.0023812113501267265
aF-0.06048463607019397
aF-0.029234124126741652
aF-0.009623172008407413
aa(lp32
F-0.2683730449473941
aF-0.23730832465342366
aF-0.2254114736926572
aF-0.12147070743568861
aa(lp33
F-0.9639557593504462
aF-0.2848336161634354
aF-0.3939578785296876
aF-0.09678383110072852
aa(lp34
F-0.875
aF-0.04713861085372904
aF-0.3114200798006578
aF-0.34163982581583213
aa(lp35
F-0.75
aF-0.03277437044951103
aF-0.225
aF-0.3389269471021971
aa(lp36
F-0.8775801277002402
aF-0.5048762583769705
aF-0.25
aF-0.030846644275178983
aa(lp37
F-0.625
aF-0.5030240491946433
aF-0.6150795883967016
aF-0.007254754455699758
aa(lp38
F-0.75
aF-0.6129501076660157
aF-0.125
aF-0.00694210564408809
aa(lp39
F-0.05625
aF-0.05625
aF-0.11955343534579062
aF-0.004844577102089528
aa(lp40
F-0.022266724314185304
aF-0.026077862903578445
aF-0.10210816174086701
aF-0.003733126460065211
aa(lp41
F-0.0027226609456219263
aF-0.007847218526900096
aF-0.00851198892406209
aF-0.007452089755659789
aa(lp42
F0.0
aF0.0
aF0.0
aF0.0
aa(lp43
F0.0
aF0.0
aF0.0
aF0.0
aa(lp44
F-0.00099637987799204
aF-0.003393578179078123
aF-0.0031594750647972385
aF-0.003571031766109658
aa(lp45
F-0.0008427861602839311
aF-0.019053566468571988
aF-0.032472901256205666
aF-0.028715028683106884
aa(lp46
F-0.5686828091790023
aF-0.885566040973883
aF-0.26192363954459486
aF-0.875
aa(lp47
F-0.5
aF-0.40146049737629397
aF-0.7277389698992964
aF-0.5
aa(lp48
F-1.45
aF-0.0008092497178395197
aF-0.5
aF-0.5
aa(lp49
F-1.0
aF0.0
aF0.0
aF-0.5
aa(lp50
F-0.5
aF-0.027343455753781234
aF-0.5
aF-0.75
aa(lp51
F-1.225
aF-1.3403662093296684
aF-0.725
aF-0.8165015625
aa(lp52
F-0.5
aF-0.07702852470334391
aF-0.75
aF-0.5
aa(lp53
F-0.32625
aF-0.43525156249999997
aF-0.5
aF-0.00915590089703561
aa(lp54
F-0.023682492479875444
aF-0.004529236575785921
aF-0.031389614129713486
aF-0.3825
aa(lp55
F-0.00021990547203616228
aF-0.013652499075331052
aF-0.007566060745765744
aF-0.01305500954342264
aa(lp56
F0.0
aF0.0
aF0.0
aF0.0
aa(lp57
F0.0
aF0.0
aF0.0
aF0.0
aa(lp58
F-0.0008460050493721686
aF-0.00977858860813096
aF-0.003787351616440882
aF-0.01431496476643256
aa(lp59
F0.02163761019533612
aF-0.01610842239760603
aF-0.0008503896143517243
aF-0.0805370831977627
aa(lp60
F-0.09153727835424276
aF-0.5611277435762735
aF-0.5447046720795361
aF-0.8125
aa(lp61
F-0.95
aF-0.5
aF-0.1166944383567775
aF-1.0
aa(lp62
F-1.0
aF-1.225
aF-1.7
aF-1.5
aa(lp63
F-1.5
aF-1.0
aF-1.0
aF-1.725
aa(lp64
F-1.5
aF-0.8752735261377401
aF-1.45
aF-1.0
aa(lp65
F-1.0
aF-1.1
aF-1.0
aF-1.5875
aa(lp66
F-1.17901640625
aF-1.1
aF-1.725
aF-0.739375
aa(lp67
F-0.9728982542541951
aF-0.4214529560889061
aF-1.07625
aF-0.848828125
aa(lp68
F-0.09746114973939182
aF-0.05958083482167262
aF-0.07819253725879038
aF-0.0032712944559492273
aa(lp69
F0.025284018603953528
aF-0.004589495146166361
aF-0.005479664607539729
aF-0.0022775388443906403
aa(lp70
F0.0
aF0.0
aF0.0
aF0.0
aa(lp71
F0.0
aF0.0
aF0.0
aF0.0
aa(lp72
F0.19135999178998267
aF-0.0007045257066820429
aF-0.011394285380401879
aF-0.05200406167882868
aa(lp73
F0.20846805307369748
aF-0.009991082781647509
aF-0.001825775475018443
aF-0.029392994674739766
aa(lp74
F-0.17113452267503368
aF-0.2348352290801042
aF0.012633287486228342
aF-0.75
aa(lp75
F-0.5
aF-0.5572888006505076
aF-0.8375
aF-1.95
aa(lp76
F-1.93875
aF-1.725
aF-1.25
aF-1.95
aa(lp77
F-1.95
aF-1.5
aF-1.5
aF-2.25
aa(lp78
F-1.0
aF-1.0
aF-2.925
aF-1.0
aa(lp79
F-1.0
aF-1.0
aF-1.5
aF-0.75
aa(lp80
F-0.75
aF-1.3125
aF-1.0
aF-0.945317890625
aa(lp81
F-0.25
aF-0.6099934725377609
aF-0.5
aF0.012217357486832201
aa(lp82
F-0.005803212491057844
aF-0.057558721403037395
aF-0.005790929154416388
aF0.0890963544184658
aa(lp83
F0.1923096620672764
aF-0.0076565771666811866
aF-0.008164505127360817
aF-0.011590385094149815
aa(lp84
F0.0
aF0.0
aF0.0
aF0.0
aa(lp85
F0.0
aF0.0
aF0.0
aF0.0
aa(lp86
F0.25967120731811844
aF0.14798293299605747
aF0.1899675879206773
aF0.1785396067897717
aa(lp87
F0.05624705947093907
aF0.004466738727825714
aF0.22769919563143728
aF0.04676678232875219
aa(lp88
F-0.011854039113356153
aF-0.725
aF0.13569551699956273
aF-1.05
aa(lp89
F-1.263125
aF-1.20125
aF-0.06291419941504098
aF-1.0
aa(lp90
F-1.0
aF-1.0
aF-1.4375
aF-1.5
aa(lp91
F-1.5
aF-1.5
aF-1.0
aF-2.0
aa(lp92
F0.0
aF-2.175
aF-1.5
aF-1.0
aa(lp93
F5.0
aF-1.225
aF0.0
aF-1.0012351772237724
aa(lp94
F-0.5
aF-0.5
aF-1.95
aF-0.007051911095618457
aa(lp95
F-0.5
aF-0.007647670247005555
aF-0.3761372744612385
aF-0.9540471959946462
aa(lp96
F-0.029441601562500003
aF-0.020143007118383134
aF-0.33811030300583433
aF-0.02106717997992097
aa(lp97
F0.3663206143613686
aF-0.000733877661293186
aF-0.0051820421215823
aF-0.0005540756946738658
aa(lp98
F0.0
aF0.0
aF0.0
aF0.0
aa(lp99
F0.0
aF0.0
aF0.0
aF0.0
aa(lp100
F0.3380163024314595
aF0.2068609926157306
aF0.23897327860133283
aF0.19027753277312973
aa(lp101
F-0.05561389885778159
aF0.20692909633474355
aF-0.021602586153332402
aF-0.024571125569561286
aa(lp102
F-0.4050607225968665
aF-0.475
aF0.12843318918565766
aF-0.75
aa(lp103
F-1.15625
aF-1.0875
aF-0.2585535328064884
aF-1.93875
aa(lp104
F-1.5
aF-1.225
aF-1.9874999999999998
aF-1.5
aa(lp105
F-1.0
aF-1.5
aF-1.45
aF1.5749619786375915
aa(lp106
F0.0
aF0.0
aF-1.95
aF8.47525975657357
aa(lp107
F0.0
aF0.0
aF0.0
aF0.0
aa(lp108
F3.209013996029676
aF-0.5
aF9.999979212421133
aF2.7084175163021307
aa(lp109
F-0.021211875
aF-0.125
aF6.657092872837644
aF0.057659819156087894
aa(lp110
F0.13862148552848924
aF-0.0047582062142268325
aF-0.047215687500000006
aF-0.0021696599457514897
aa(lp111
F0.5453415685401244
aF-0.0012552374956950442
aF-0.0007901830680732952
aF-0.001055687211407159
aa(lp112
F0.0
aF0.0
aF0.0
aF0.0
aa(lp113
F0.0
aF0.0
aF0.0
aF0.0
aa(lp114
F0.40664098470884336
aF0.26730829512865
aF0.3479104505314941
aF0.2886977382869838
aa(lp115
F0.5626449730269212
aF0.13817107161553133
aF0.22546288357414476
aF0.014141589520335118
aa(lp116
F-1.2
aF-0.6241480110752664
aF0.13091313101872584
aF-0.5416289616754014
aa(lp117
F-0.75
aF-0.95
aF-0.26349347239447163
aF-2.0875000000000004
aa(lp118
F-0.75
aF-1.725
aF-0.9542369091776856
aF-1.0
aa(lp119
F-1.1282395397727578
aF-1.5
aF-1.45
aF-0.6709529673782767
aa(lp120
F-0.49316071435519676
aF2.9448095451389893
aF0.0
aF0.6258529454026078
aa(lp121
F3.4297026918088944
aF9.961928524883572
aF0.893460459454826
aF3.487130572745518
aa(lp122
F2.587546790830383
aF6.945983775070126
aF-0.6394068483735401
aF2.1784069407992215
aa(lp123
F2.2621767262746966
aF-0.014711636307448941
aF0.04007016756900662
aF-0.00022568434303580563
aa(lp124
F-0.0010176402351075886
aF0.027980721737143922
aF-0.10125
aF0.3656079194394475
aa(lp125
F0.5289076586657994
aF0.0007893672493483569
aF0.07759945369371013
aF0.00045085774325317465
aa(lp126
F0.0
aF0.0
aF0.0
aF0.0
aa(lp127
F0.0
aF0.0
aF0.0
aF0.0
aa(lp128
F0.4633328569360332
aF0.34358235538169457
aF0.3769780233864831
aF0.3565668716323289
aa(lp129
F0.5317246761524499
aF0.2411134932370706
aF0.4402323633447289
aF-0.09127502818311686
aa(lp130
F0.6455125619408348
aF-0.5332282914863031
aF0.09196254043663321
aF-1.2185831953004849
aa(lp131
F-0.70809260078445
aF-0.75
aF0.27549995876399036
aF-0.975
aa(lp132
F-0.869081506871658
aF-1.0
aF-0.3732122645949383
aF-1.4011124756976758
aa(lp133
F-1.2496776594368044
aF-1.0
aF-1.4836267075503597
aF0.011246615965775142
aa(lp134
F-0.18665748727197218
aF1.2591655764487157
aF-0.14255613424581465
aF-0.4234563428816238
aa(lp135
F2.0338740159269273
aF1.729304621537382
aF1.0206883541147589
aF5.58641683343504
aa(lp136
F1.828928279870996
aF5.297877259991562
aF0.43360295147964534
aF2.5613000886175206
aa(lp137
F0.5097911373523683
aF1.8341037481351599
aF3.4303631750228876
aF0.5654701730518163
aa(lp138
F0.4728549715276382
aF-0.0019329321093750002
aF1.7622365391710004
aF-0.0003119809939932415
aa(lp139
F0.20618683073646651
aF-0.00031664511060382807
aF0.8297584733979703
aF-0.00043485553848091627
aa(lp140
F0.0
aF0.0
aF0.0
aF0.0
aa(lp141
F0.0
aF0.0
aF0.0
aF0.0
aa(lp142
F0.5935492205629818
aF0.4512699918827061
aF0.4579382434758744
aF0.46366533319584646
aa(lp143
F0.5332027718479947
aF0.4733909776011945
aF0.5238558296182628
aF0.5935601820989111
aa(lp144
F0.6262622788244602
aF0.21950282304271415
aF0.4145610036346504
aF0.6672097819569234
aa(lp145
F0.8228092037151995
aF-0.8012537383603338
aF0.6394675427717436
aF-0.31560205213363063
aa(lp146
F1.0614666899709766
aF-1.213872170789888
aF-0.3155448245765537
aF-0.732894304856696
aa(lp147
F0.8085892378071469
aF-0.6938004732009792
aF0.0400226096524115
aF0.759118956556369
aa(lp148
F0.6736947471358334
aF0.7816443905123514
aF0.8169320230075874
aF2.629062356056818
aa(lp149
F1.621624929882839
aF4.033726527606422
aF1.4065189849410866
aF1.8956452140407443
aa(lp150
F1.0680935133424005
aF0.9357818511479079
aF3.187701547872168
aF1.1036914654990555
aa(lp151
F-0.09515143726354182
aF0.5615416015941382
aF1.5741436828542619
aF0.42825227384942455
aa(lp152
F0.31127106520670494
aF-0.0023814502574496478
aF-0.022706728598630897
aF0.2928297652163566
aa(lp153
F0.4169441715288322
aF-0.00012842367812042427
aF0.19201034755391183
aF0.4512554890561233
aa(lp154
F0.0
aF0.0
aF0.0
aF0.0
aa(lp155
F0.0
aF0.0
aF0.0
aF0.0
aa(lp156
F0.7262009618774374
aF0.47933888363483734
aF0.4714821050932986
aF0.4905110871617526
aa(lp157
F0.4836250664126114
aF0.5112885888960172
aF0.4943711635818626
aF0.6731101549511427
aa(lp158
F0.9300666769661808
aF0.41580201330700267
aF0.4899638683475911
aF0.17868510517442726
aa(lp159
F0.448665434745132
aF0.7590608283272977
aF0.7366036874578
aF1.0783573724751956
aa(lp160
F1.2082226217472614
aF0.8103412686353233
aF0.7736479718896236
aF0.8420245898092782
aa(lp161
F0.8668905458447822
aF0.8283199516365144
aF0.9796697179570121
aF2.011488814847169
aa(lp162
F1.452220640452222
aF1.5152808005164207
aF1.0676413287422166
aF3.0495409623339915
aa(lp163
F1.057366524543854
aF3.867031282312338
aF1.244256559260327
aF1.038371947741081
aa(lp164
F1.0345917713958062
aF1.0356650337070437
aF1.6090860523912727
aF0.6772866603399172
aa(lp165
F0.6048109775346876
aF0.40309821032805004
aF1.0818431452089627
aF0.25641657873482476
aa(lp166
F0.42235876867525335
aF0.1944453182572352
aF0.37121618984601207
aF0.3621301539474185
aa(lp167
F0.002924823276496588
aF0.41501595695428
aF0.3105028699844816
aF-2.22429926444051e-05
aa(lp168
F0.0
aF0.0
aF0.0
aF0.0
aa(lp169
F0.0
aF0.0
aF0.0
aF0.0
aa(lp170
F0.5616396136650268
aF0.5823312222225929
aF0.5587335140593055
aF0.768915308506986
aa(lp171
F0.5951920308134506
aF0.6231251178746071
aF0.5622551321297339
aF0.8736362750131628
aa(lp172
F0.6634224088225906
aF0.6418241201270305
aF0.6602476733514451
aF1.0591318745192302
aa(lp173
F0.731333015012438
aF0.8569948431938748
aF0.6844650135392933
aF1.266547990442093
aa(lp174
F0.8386635397942729
aF0.8523601897063975
aF0.9982719964482429
aF1.4748607788217718
aa(lp175
F0.8596807782395045
aF0.8986173979469226
aF1.4360386781361587
aF1.7826360228393914
aa(lp176
F0.9783218239704257
aF2.318808402185181
aF0.9810448960059726
aF1.2266045006383612
aa(lp177
F1.0059508646386985
aF1.993613614254813
aF1.0110828247141501
aF1.0312035616689341
aa(lp178
F0.47727767055254045
aF0.32892719373319457
aF1.0407292938026393
aF0.46349497124785255
aa(lp179
F0.31821009799353506
aF0.30872939996944526
aF1.4075965266725747
aF0.2772422912750988
aa(lp180
F0.35608039867705016
aF0.41314723264115083
aF6.241048580467044e-05
aF0.00011917381725159491
aa(lp181
F9.253585998575623e-05
aF0.16041258439404682
aF8.796740358643607e-05
aF0.004583717152176626
aa(lp182
F0.0
aF0.0
aF0.0
aF0.0
aa(lp183
F0.0
aF0.0
aF0.0
aF0.0
aa(lp184
F0.0
aF0.0
aF0.0
aF0.0
aa(lp185
F0.0
aF0.0
aF0.0
aF0.0
aa(lp186
F0.0
aF0.0
aF0.0
aF0.0
aa(lp187
F0.0
aF0.0
aF0.0
aF0.0
aa(lp188
F0.0
aF0.0
aF0.0
aF0.0
aa(lp189
F0.0
aF0.0
aF0.0
aF0.0
aa(lp190
F0.0
aF0.0
aF0.0
aF0.0
aa(lp191
F0.0
aF0.0
aF0.0
aF0.0
aa(lp192
F0.0
aF0.0
aF0.0
aF0.0
aa(lp193
F0.0
aF0.0
aF0.0
aF0.0
aa(lp194
F0.0
aF0.0
aF0.0
aF0.0
aa(lp195
F0.0
aF0.0
aF0.0
aF0.0
aa(lp196
F0.0
aF0.0
aF0.0
aF0.0
aa.