(lp0
(lp1
F0.0
aF0.0
aF0.0
aF0.0
aa(lp2
F0.0
aF0.0
aF0.0
aF0.0
aa(lp3
F0.0
aF0.0
aF0.0
aF0.0
aa(lp4
F0.0
aF0.0
aF0.0
aF0.0
aa(lp5
F0.0
aF0.0
aF0.0
aF0.0
aa(lp6
F0.0
aF0.0
aF0.0
aF0.0
aa(lp7
F0.0
aF0.0
aF0.0
aF0.0
aa(lp8
F0.0
aF0.0
aF0.0
aF0.0
aa(lp9
F0.0
aF0.0
aF0.0
aF0.0
aa(lp10
F0.0
aF0.0
aF0.0
aF0.0
aa(lp11
F0.0
aF0.0
aF0.0
aF0.0
aa(lp12
F0.0
aF0.0
aF0.0
aF0.0
aa(lp13
F0.0
aF0.0
aF0.0
aF0.0
aa(lp14
F0.0
aF0.0
aF0.0
aF0.0
aa(lp15
F0.0
aF0.0
aF0.0
aF0.0
aa(lp16
F-0.001467313063743938
aF-0.0015014891476057579
aF-0.0016087966226911968
aF-0.005295572120283497
aa(lp17
F-0.0026627852505913593
aF-0.011007978014155553
aF-0.0012263522388798833
aF-0.005984342114421268
aa(lp18
F-0.015617006319723292
aF-0.012470961115524492
aF-0.0023180914376711667
aF-0.035931368297891855
aa(lp19
F-0.10895506249131971
aF-0.03776700639854962
aF-0.004570222405723884
aF-0.03481864194972985
aa(lp20
F-0.1350091628123481
aF-0.07009518723378727
aF-0.01981019101732239
aF-0.04079058859686345
aa(lp21
F-0.08820878963289877
aF-0.10164880916313754
aF-0.05131372364012697
aF-0.024186046460800227
aa(lp22
F-0.37718097910817006
aF-0.10230537519951606
aF-0.1119164984782687
aF-0.015509049882502911
aa(lp23
F-0.05227998225970472
aF-0.03914548604045429
aF-0.07313197415009932
aF-0.009262223889122335
aa(lp24
F-0.10515642574341225
aF-0.07136592356659735
aF-0.02968609084179876
aF-0.005121035224274008
aa(lp25
F-0.020774374298881834
aF-0.01458586040846963
aF-0.017609991537704914
aF-0.015416514033292375
aa(lp26
F-0.005877585863942025
aF-0.010049521202287292
aF-0.005794511972002561
aF-0.002271256906854993
aa(lp27
F-0.001548287820816601
aF-0.005586491911381739
aF-0.005624313098168365
aF-0.004636362362297683
aa(lp28
F0.0
aF0.0
aF0.0
aF0.0
aa(lp29
F0.0
aF0.0
aF0.0
aF0.0
aa(lp30
F-0.0025715573692769098
aF-0.0023187289739149807
aF-0.0052737314965767
aF-0.0009481294667982433
aa(lp31
F-0.009932207578615463
aF-0.005490617015894008
aF-0.0011311016681800946
aF-0.0057816585435687875
aa(lp32
F-0.043784932942868365
aF-0.010108734698437958
aF-0.0021371919602311937
aF-0.09280473083966762
aa(lp33
F-0.6390559808144807
aF-0.01579707586459779
aF-0.3801767342635423
aF-0.42770623623249154
aa(lp34
F-1.2916508279150705
aF-0.02174610746284921
aF-0.7278652686027303
aF-0.3200494596846654
aa(lp35
F-1.1883618425988725
aF-0.053710907246421365
aF-0.325012800654756
aF-0.725
aa(lp36
F-1.1
aF-0.3063943130016074
aF-0.03620392524554257
aF-0.19297779382993985
aa(lp37
F-1.325
aF-0.3766284310268233
aF-0.03138504724155386
aF-0.563694448594814
aa(lp38
F-0.8958999957637752
aF-0.5086882896805398
aF-0.06889834031581546
aF-0.3037145153892483
aa(lp39
F-0.04452286115112601
aF-0.05718913371182879
aF-0.09398691839902731
aF-0.016185709093239957
aa(lp40
F-0.0180824269005387
aF-0.0020031395946165306
aF-0.06885859710118672
aF-0.020626130243191675
aa(lp41
F-0.0010749763249802932
aF-0.005820724460130364
aF-0.041017962974169056
aF-0.005513661157895613
aa(lp42
F0.0
aF0.0
aF0.0
aF0.0
aa(lp43
F0.0
aF0.0
aF0.0
aF0.0
aa(lp44
F-0.01645140472005848
aF-0.0010759895573413602
aF-0.008651253153322309
aF-0.08421373373075194
aa(lp45
F-0.2964665310836167
aF-0.047890675792322424
aF-0.004360579920448882
aF-0.1014761293137068
aa(lp46
F-0.08971832125917623
aF-0.6282284191921322
aF-0.5231096740980328
aF-1.761284611011687
aa(lp47
F-1.7439094126113968
aF-0.033027448200444356
aF-0.9529850686211412
aF-0.725
aa(lp48
F-1.95
aF-0.3144338169489034
aF-1.055859697557957
aF-1.0460842497961238
aa(lp49
F-1.0
aF-0.20850246729793467
aF-0.75
aF-0.75
aa(lp50
F-1.6000797540180143
aF-0.6215315737993552
aF-0.95
aF-0.8479003339284537
aa(lp51
F-1.5
aF-0.1287298815467525
aF-0.7508484765617759
aF-0.5
aa(lp52
F-0.5482705030253796
aF-0.07083217538328018
aF-0.5
aF-0.5
aa(lp53
F-0.1173251062486754
aF-0.048465065063012513
aF-0.875
aF-0.505384924446037
aa(lp54
F-0.018998470422999462
aF-0.011471210163097354
aF-0.031420527712120956
aF-0.0014535337989485227
aa(lp55
F-0.0011107317781732158
aF-0.0024056357630276746
aF-0.005248521555786702
aF-0.0023107352171288335
aa(lp56
F0.0
aF0.0
aF0.0
aF0.0
aa(lp57
F0.0
aF0.0
aF0.0
aF0.0
aa(lp58
F-0.004246754228875355
aF-0.013249891417419248
aF-0.0170967029847698
aF-0.06218568775586821
aa(lp59
F-0.5073441950381659
aF-0.0031084579867319594
aF-0.01956856536586627
aF-0.386313139504155
aa(lp60
F-0.7214706828544736
aF-0.04810418121633018
aF-0.559058255224722
aF-2.144032276466315
aa(lp61
F-1.7995361957498597
aF-1.1559702645845806
aF-1.4648781250000003
aF-2.68375
aa(lp62
F-1.95
aF-1.4723269338026275
aF-1.68528125
aF-2.175
aa(lp63
F-1.5
aF-1.25
aF-1.5
aF-1.725097309753418
aa(lp64
F-1.5
aF-1.1139775044644602
aF-1.0
aF-1.0
aa(lp65
F-1.3375
aF-0.5
aF-1.0
aF-0.5
aa(lp66
F-0.5
aF-0.5
aF-1.0
aF-0.1582440536184016
aa(lp67
F-0.0686244674221641
aF-0.5
aF-0.8208135656183249
aF-0.25
aa(lp68
F-0.00254546931926011
aF-0.0190629040605554
aF-0.071915652358274
aF-0.02638340339379786
aa(lp69
F-0.0014532599523438122
aF-0.0026437183876927123
aF-0.00555381038100957
aF-0.002580144273471152
aa(lp70
F0.0
aF0.0
aF0.0
aF0.0
aa(lp71
F0.0
aF0.0
aF0.0
aF0.0
aa(lp72
F-0.017675180796167908
aF-0.011170414081073648
aF-0.009165102261287946
aF-0.026087577888755157
aa(lp73
F-0.12292877539376379
aF-0.11679042777436716
aF-0.005333841791707168
aF-0.2023494882248153
aa(lp74
F-0.3839604823650502
aF-1.0413874716539193
aF-1.0011026851812095
aF-1.8426545139660933
aa(lp75
F-2.293914429241476
aF-1.787097468428052
aF-0.6142246240440787
aF-1.8375
aa(lp76
F-2.2
aF-2.1418125
aF-1.81375
aF-2.2
aa(lp77
F-1.95
aF-1.0
aF-1.725
aF-1.5
aa(lp78
F-1.5
aF-1.0
aF-1.5
aF-1.5
aa(lp79
F-1.0
aF-1.5
aF-1.95
aF-0.875
aa(lp80
F0.0
aF-1.0
aF-1.225
aF-0.02137736436767578
aa(lp81
F-0.29431512707519536
aF-0.35452861422962667
aF-0.25
aF-0.016202481089120993
aa(lp82
F-0.01869999506062884
aF-0.017671102591146265
aF-0.027796254391836313
aF-0.0030491373802881876
aa(lp83
F-0.0015494771639536597
aF-0.002330715768911518
aF-0.003038021023618926
aF-0.004644382361396285
aa(lp84
F0.0
aF0.0
aF0.0
aF0.0
aa(lp85
F0.0
aF0.0
aF0.0
aF0.0
aa(lp86
F-0.032240120553531336
aF-0.008325514122168377
aF-0.047957504019422725
aF-0.028906850402069452
aa(lp87
F-0.022547464356078118
aF-0.08039927087515913
aF-0.08526187494452417
aF-0.13934960316434575
aa(lp88
F-0.7590711735608936
aF-0.707844059667218
aF-0.20787863254421815
aF-0.96659765625
aa(lp89
F-0.75
aF-0.725
aF-0.27947815073878873
aF-1.0
aa(lp90
F-1.225
aF-1.95
aF-1.0104933830209388
aF-1.5
aa(lp91
F0.0
aF-1.5
aF-1.0
aF-1.45
aa(lp92
F-1.5
aF-1.5
aF-1.5
aF-1.5
aa(lp93
F-1.45
aF-1.0
aF-1.0
aF-0.5
aa(lp94
F-0.5
aF-0.75
aF-1.0
aF-0.22218749999999998
aa(lp95
F-0.03419440624147148
aF-0.3253982434002106
aF-0.99903125
aF-0.3063203125
aa(lp96
F-0.008585415930995148
aF-0.029699421064677746
aF-0.09367980408805837
aF-0.019820161919563574
aa(lp97
F-0.001266312065868594
aF-0.0024636265056045695
aF-0.020305514810141242
aF-0.0033460272106420183
aa(lp98
F0.0
aF0.0
aF0.0
aF0.0
aa(lp99
F0.0
aF0.0
aF0.0
aF0.0
aa(lp100
F-0.010242937284147007
aF-0.010913623092861847
aF-0.012467231175902458
aF-0.033773151440676594
aa(lp101
F-0.010286244768461137
aF-0.08309285915201134
aF-0.31972555549244924
aF-0.0971458745300259
aa(lp102
F-0.4363844058649601
aF-1.2676165665654184
aF-0.7838452153026033
aF-1.3651929717638174
aa(lp103
F-1.326584733678212
aF-1.3781906037754879
aF-0.7625053672088487
aF-2.661359086874006
aa(lp104
F-1.8375
aF-1.9499823187488952
aF-1.3125
aF-2.425
aa(lp105
F-1.0
aF0.0
aF-2.1775
aF-1.0
aa(lp106
F-1.0
aF5.0
aF-1.5
aF-1.0
aa(lp107
F0.0
aF0.0
aF0.0
aF0.0
aa(lp108
F-0.01672751953125
aF-0.5
aF5.0
aF0.0
aa(lp109
F-0.018429773660317415
aF-0.3375
aF-0.5
aF-0.34186645200491905
aa(lp110
F-0.003202563003386682
aF-0.010616912276380343
aF-0.025331158701072436
aF-0.037692668516647654
aa(lp111
F-0.0011315418553894865
aF-0.0033780191782003897
aF-0.004582491503766379
aF-0.0017502924189091705
aa(lp112
F0.0
aF0.0
aF0.0
aF0.0
aa(lp113
F0.0
aF0.0
aF0.0
aF0.0
aa(lp114
F-0.018911012950348815
aF-0.007789502899985922
aF-0.01756704924879288
aF-0.027667553826495023
aa(lp115
F-0.0020821920335458823
aF-0.028936573066277886
aF-0.024580520132170873
aF-0.15397114117530247
aa(lp116
F-0.4794349256983506
aF-0.9241640386972223
aF-0.008392714062958181
aF-1.0163185278969018
aa(lp117
F-0.8880720728297441
aF-1.3125
aF-0.65871872061545
aF-2.15584375
aa(lp118
F-1.08890625
aF-1.0
aF-1.825
aF-1.475
aa(lp119
F-1.12278125
aF-2.0
aF-1.5
aF-1.725
aa(lp120
F-1.0
aF-1.0
aF-1.0
aF-0.75
aa(lp121
F-0.5004506838819748
aF0.0
aF-1.0
aF-0.225
aa(lp122
F-0.2591231146602673
aF-0.75
aF-0.5
aF-0.09105846677052022
aa(lp123
F-0.029408412846930757
aF-0.07536985148945931
aF-0.16501033723764685
aF-0.006600101317626606
aa(lp124
F-0.003943989981862907
aF-0.00651226776440177
aF-0.006133856508637909
aF-0.007451292240016643
aa(lp125
F-0.0005658708122387582
aF-0.0015794374847042398
aF-0.002588475456778935
aF-0.002862056664676834
aa(lp126
F0.0
aF0.0
aF0.0
aF0.0
aa(lp127
F0.0
aF0.0
aF0.0
aF0.0
aa(lp128
F-0.0007565126296344443
aF-0.005890120402580676
aF-0.00357816958784409
aF-0.010949820383147468
aa(lp129
F-0.04524842367272926
aF-0.020582643272805984
aF-0.0008123788966896209
aF-0.05013231182913165
aa(lp130
F-0.3081439910980241
aF-0.22254667167337797
aF-0.01683213676319463
aF-1.0224368424036308
aa(lp131
F-0.161641977757624
aF-0.8344435534874068
aF-0.7448554472997005
aF-0.8219866668884755
aa(lp132
F-0.09754210714798575
aF-1.0
aF-0.7912221084996512
aF-1.475
aa(lp133
F-1.4087161141157776
aF-1.95
aF-1.0892411505672386
aF-1.011635015122497
aa(lp134
F-0.21954847019547008
aF-1.0
aF-0.5
aF-0.5
aa(lp135
F-0.1125
aF-0.5
aF-0.5
aF-0.03430715285251233
aa(lp136
F-0.5039787651991697
aF-0.02544632491522783
aF-0.876466345046659
aF-0.2738519963465017
aa(lp137
F-0.03255521229030091
aF-0.07040241564376612
aF-0.035882659678580904
aF-0.00042866374052661304
aa(lp138
F-0.0008950583342352225
aF-0.003393296289984523
aF-0.003834252221026695
aF-0.0005749938387270024
aa(lp139
F-5.465143727157926e-05
aF-0.0026136613028672233
aF-0.0006614680510798234
aF-0.0015690372083039992
aa(lp140
F0.0
aF0.0
aF0.0
aF0.0
aa(lp141
F0.0
aF0.0
aF0.0
aF0.0
aa(lp142
F-0.0007218244037485831
aF-0.002587473148685832
aF-0.0018940624774201862
aF-0.0010437612229864108
aa(lp143
F-0.0007613620774834155
aF-0.006509755385984601
aF-0.002138531778711937
aF-0.0651817893265365
aa(lp144
F-0.04382250972484974
aF-0.2147231410211601
aF-0.0003937404608410643
aF-0.07202415102369056
aa(lp145
F-0.14934926816343919
aF-1.1254150282156448
aF-0.006062867842600522
aF-0.369241771482398
aa(lp146
F-0.5413712608889076
aF-0.4709791096356327
aF-0.024322314903641132
aF-0.501806033348696
aa(lp147
F-0.9181577297190535
aF-1.449630595065475
aF-0.10037242989144987
aF-0.9960631253990876
aa(lp148
F-0.5536681588752317
aF-0.9375
aF-0.637668173645006
aF-0.18124444629566394
aa(lp149
F-0.382089881978515
aF-0.7515559225253362
aF-0.5200096842787376
aF-0.006560420185572338
aa(lp150
F-0.0016277059206948204
aF-0.04734913415828822
aF-0.023695931548673485
aF-0.22510306725203563
aa(lp151
F-0.001792925634841203
aF-0.02635280555719582
aF-0.017632336992585426
aF-0.040608297410091525
aa(lp152
F-0.0038626703594501505
aF-0.0017182552339376487
aF-0.0022929251658589463
aF-8.091733195756201e-05
aa(lp153
F-1.8901782495655234e-05
aF-0.0001754923646618744
aF-0.0004756138930823308
aF-8.404570057113507e-05
aa(lp154
F0.0
aF0.0
aF0.0
aF0.0
aa(lp155
F0.0
aF0.0
aF0.0
aF0.0
aa(lp156
F-0.00023100406179776839
aF-0.0011998231279956874
aF-0.0006333871599097653
aF-0.0013296052633448912
aa(lp157
F-0.0005285848871248565
aF-0.0010209561623247343
aF-0.0025882235461580135
aF-0.005073338114861589
aa(lp158
F-0.002949804241246609
aF-0.019968162772970314
aF-0.0006037713270229397
aF-0.0048354914134189336
aa(lp159
F-0.015574080046642041
aF-0.018872685229233046
aF-0.0009710319967336874
aF-0.026974498818739538
aa(lp160
F-0.005091625164346087
aF-0.03604198347904789
aF-0.0488551718132487
aF-0.009335323305610137
aa(lp161
F-0.002368287768750838
aF-0.06043258049722781
aF-0.04733724046424371
aF-0.0325927741969977
aa(lp162
F-0.003248297475350158
aF-0.2128016798144563
aF-0.07761111604378382
aF-0.013257517566868757
aa(lp163
F-0.014068798894243024
aF-0.025864775004865472
aF-0.016542516871080416
aF-0.0007711077391680239
aa(lp164
F-0.01170800262054674
aF-0.005763223755657968
aF-0.02585477498045673
aF-0.0004094800710408162
aa(lp165
F-0.0001540748978179452
aF-0.009417935214437189
aF-0.006663611350621449
aF-0.0036225985262876284
aa(lp166
F-1.184299671253288e-05
aF-0.0002971802525015732
aF-0.0036665761037907156
aF-0.0007294770988397768
aa(lp167
F-8.313563981747845e-06
aF-5.762420209535129e-05
aF-5.996418090687968e-05
aF-3.76929053379373e-05
aa(lp168
F0.0
aF0.0
aF0.0
aF0.0
aa(lp169
F0.0
aF0.0
aF0.0
aF0.0
aa(lp170
F-0.0004973896746062996
aF-0.00033822414240666625
aF-0.00017326188630853068
aF-0.0003788842972438568
aa(lp171
F-0.0012390501901009703
aF-0.0013292468623104243
aF-0.0005108429064181795
aF-0.0026293295758977554
aa(lp172
F-0.0015075875131371637
aF-0.0062559131833705576
aF-0.0003533173570657094
aF-0.0033322928199104014
aa(lp173
F-0.007016687029180341
aF-0.020193603727159108
aF-0.010789491891586366
aF-0.008660232820842346
aa(lp174
F-0.005825498124134711
aF-0.0058351733078491055
aF-0.013097460338389775
aF-0.004350742776632942
aa(lp175
F-0.013223212096292966
aF-0.010916524210508495
aF-0.012044845976021979
aF-0.004053368185308784
aa(lp176
F-0.011889127241051109
aF-0.01942331651770067
aF-0.013851574685138519
aF-0.0023372966798408563
aa(lp177
F-0.006526908746458547
aF-0.009438296027702584
aF-0.009423332617689297
aF-0.00015901949660606168
aa(lp178
F-0.001494439827726218
aF-0.006175131115132031
aF-0.001365032876238998
aF-2.621089116560963e-05
aa(lp179
F-0.0006641601873485399
aF-0.0005479530434632559
aF-0.0008696672282020529
aF-1.8900276642424407e-05
aa(lp180
F-1.1345956185754023e-05
aF-0.00027108248147469656
aF-3.4575327804130865e-05
aF-9.782817733419856e-06
aa(lp181
F-2.0019334516817654e-05
aF-2.017244824501933e-05
aF-1.3036221451899097e-05
aF-2.1371528841667814e-05
aa(lp182
F0.0
aF0.0
aF0.0
aF0.0
aa(lp183
F0.0
aF0.0
aF0.0
aF0.0
aa(lp184
F0.0
aF0.0
aF0.0
aF0.0
aa(lp185
F0.0
aF0.0
aF0.0
aF0.0
aa(lp186
F0.0
aF0.0
aF0.0
aF0.0
aa(lp187
F0.0
aF0.0
aF0.0
aF0.0
aa(lp188
F0.0
aF0.0
aF0.0
aF0.0
aa(lp189
F0.0
aF0.0
aF0.0
aF0.0
aa(lp190
F0.0
aF0.0
aF0.0
aF0.0
aa(lp191
F0.0
aF0.0
aF0.0
aF0.0
aa(lp192
F0.0
aF0.0
aF0.0
aF0.0
aa(lp193
F0.0
aF0.0
aF0.0
aF0.0
aa(lp194
F0.0
aF0.0
aF0.0
aF0.0
aa(lp195
F0.0
aF0.0
aF0.0
aF0.0
aa(lp196
F0.0
aF0.0
aF0.0
aF0.0
aa.