(lp0
(lp1
F0.0
aF0.0
aF0.0
aF0.0
aa(lp2
F0.0
aF0.0
aF0.0
aF0.0
aa(lp3
F0.0
aF0.0
aF0.0
aF0.0
aa(lp4
F0.0
aF0.0
aF0.0
aF0.0
aa(lp5
F0.0
aF0.0
aF0.0
aF0.0
aa(lp6
F0.0
aF0.0
aF0.0
aF0.0
aa(lp7
F0.0
aF0.0
aF0.0
aF0.0
aa(lp8
F0.0
aF0.0
aF0.0
aF0.0
aa(lp9
F0.0
aF0.0
aF0.0
aF0.0
aa(lp10
F0.0
aF0.0
aF0.0
aF0.0
aa(lp11
F0.0
aF0.0
aF0.0
aF0.0
aa(lp12
F0.0
aF0.0
aF0.0
aF0.0
aa(lp13
F0.0
aF0.0
aF0.0
aF0.0
aa(lp14
F0.0
aF0.0
aF0.0
aF0.0
aa(lp15
F0.0
aF0.0
aF0.0
aF0.0
aa(lp16
F0.0
aF0.0
aF0.0
aF0.00196697345130316
aa(lp17
F-0.2231806640625
aF0.0
aF0.8612209722015798
aF2.24235264268156
aa(lp18
F0.0
aF0.0
aF1.8014982804994202
aF0.0
aa(lp19
F0.0
aF0.0
aF0.0
aF3.4725547728459425
aa(lp20
F3.2538950885617526
aF2.152303503988357
aF1.036053391903322
aF4.699120224950945
aa(lp21
F4.467899003292537
aF3.039573153075094
aF0.0
aF2.467466640901211
aa(lp22
F4.965573386429161
aF1.1038111754502449
aF3.4390095938525196
aF1.6815633982727092
aa(lp23
F1.8619354211911099
aF0.9824051389819347
aF1.8805115734351372
aF3.842740682285277
aa(lp24
F4.453254063200706
aF2.09663111442141
aF1.3579376613234744
aF3.3610016799832314
aa(lp25
F5.973863107740561
aF0.0
aF0.0
aF2.565315661338948
aa(lp26
F3.939073334478681
aF0.0
aF2.355548395205918
aF0.3563348055000171
aa(lp27
F3.173600633803807
aF2.0300930524435223
aF1.143648748946752
aF2.1873789534304624
aa(lp28
F0.0
aF0.0
aF0.0
aF0.0
aa(lp29
F0.0
aF0.0
aF0.0
aF0.0
aa(lp30
F0.6044527746061423
aF0.7854596535264817
aF1.1699816681297428
aF1.4768282138983342
aa(lp31
F0.46625415145188676
aF1.0786110407567304
aF2.0042902958742865
aF2.7443459855880556
aa(lp32
F0.224458310321965
aF0.34164029248248007
aF-0.475
aF3.3459147113331915
aa(lp33
F-0.5
aF4.32336994977571
aF-0.2512996856642039
aF-0.17237812500000002
aa(lp34
F-0.5393898789716318
aF3.9385615980107396
aF2.885806417307572
aF1.8456824485237768
aa(lp35
F-0.5
aF0.4076385398366753
aF-0.19153125000000001
aF5.536328121413455
aa(lp36
F3.2441652953857125
aF3.0039176730641923
aF2.6010916597075093
aF4.384770861753273
aa(lp37
F5.326824523834466
aF1.9240111075754154
aF0.0
aF3.4728465859583793
aa(lp38
F5.82185206009646
aF0.0
aF4.813156172781205
aF3.24899171594011
aa(lp39
F0.0
aF0.0
aF0.0
aF4.745486131529924
aa(lp40
F5.483363506810495
aF2.9707672467743205
aF3.315819220474138
aF3.0126320304303587
aa(lp41
F5.433754344311758
aF2.942374590575944
aF3.099396871558941
aF2.8402852796473415
aa(lp42
F0.0
aF0.0
aF0.0
aF0.0
aa(lp43
F0.0
aF0.0
aF0.0
aF0.0
aa(lp44
F0.40005047145938144
aF2.22183663471532
aF0.0
aF0.5346762983448067
aa(lp45
F0.5363184975028322
aF2.20231351869095
aF0.6173607946912699
aF-0.6691817200115503
aa(lp46
F-0.8482858233380256
aF0.03250079523737959
aF1.4776483218828491
aF-0.725
aa(lp47
F-1.1047493985308305
aF-0.8603235287613962
aF0.33274172793229206
aF3.5887482768186354
aa(lp48
F-2.083023918058018
aF3.9575734656046375
aF0.2148133400430452
aF2.227843514351137
aa(lp49
F-1.45
aF2.1738136584814485
aF-0.75
aF4.114476770843375
aa(lp50
F0.0
aF3.8380644959421026
aF-0.5
aF1.586699831203703
aa(lp51
F-1.0
aF3.78240054160939
aF1.9299907645227063
aF7.1520688942614745
aa(lp52
F5.508469344749171
aF3.5607154595214365
aF0.0
aF8.97131125486766
aa(lp53
F0.0
aF0.0
aF0.0
aF0.0
aa(lp54
F3.5713292148615867
aF4.509928397216967
aF8.045849885042726
aF4.767028087707297
aa(lp55
F2.997829700365878
aF3.2251973207204934
aF7.471639168921025
aF2.979715678458818
aa(lp56
F0.0
aF0.0
aF0.0
aF0.0
aa(lp57
F0.0
aF0.0
aF0.0
aF0.0
aa(lp58
F-0.08615792550767051
aF1.4961323819112131
aF0.34954039779004165
aF0.0015390938286787559
aa(lp59
F-0.33450220237598816
aF-0.23605161204605718
aF0.9940134048391601
aF-2.1532087493028556
aa(lp60
F-1.937257828491397
aF-0.7912098969260134
aF-0.2312881638304488
aF0.06494247687441335
aa(lp61
F-2.6549322539551463
aF-1.7232004303370065
aF-0.06949752305912504
aF-1.7383898336229706
aa(lp62
F-1.5
aF3.696086089318731
aF-0.733546875
aF-1.0
aa(lp63
F-3.1499999999999995
aF1.393452884326513
aF-1.5
aF-1.225
aa(lp64
F-1.95
aF5.363363620596889
aF-0.7895588792124366
aF-1.0
aa(lp65
F-1.25
aF1.657733079266829
aF-1.0
aF3.080034245508788
aa(lp66
F0.0
aF7.539898344224774
aF-0.5
aF0.0
aa(lp67
F2.25989797527751
aF5.988331035738766
aF-0.5
aF3.03454727640543
aa(lp68
F2.7118211410015216
aF3.1804732821753436
aF5.043764147609352
aF4.900753718430369
aa(lp69
F2.6406468363721043
aF5.67250161232235
aF2.9196640302984163
aF2.788928741526173
aa(lp70
F0.0
aF0.0
aF0.0
aF0.0
aa(lp71
F0.0
aF0.0
aF0.0
aF0.0
aa(lp72
F-0.22738146258486974
aF-0.28092768253096356
aF0.2573896813863293
aF-0.9772701362205476
aa(lp73
F-0.9290320875987228
aF0.13397353280056418
aF-0.9987848824189187
aF-0.9054554855048593
aa(lp74
F-2.550634413630691
aF-0.35276303287066435
aF-1.8946185958339732
aF-2.8270476209087847
aa(lp75
F-3.208996945557303
aF0.04364914399341502
aF-2.8341328395172085
aF-3.4000000000000004
aa(lp76
F-2.7
aF0.41980710016867007
aF-2.7971874999999997
aF-2.25
aa(lp77
F-2.45
aF-1.847083346764569
aF-3.284875012088112
aF-1.1226052005419973
aa(lp78
F-1.95
aF-1.725
aF-1.5
aF-0.3353999677207246
aa(lp79
F0.0
aF-1.0
aF-1.7560595782855508
aF-0.5
aa(lp80
F0.9949508195296715
aF0.0
aF0.0
aF1.5798391963169447
aa(lp81
F2.2570376237028
aF0.0
aF0.0
aF0.0
aa(lp82
F2.714112309816343
aF4.862198742367381
aF2.4279805247676327
aF2.488214582262443
aa(lp83
F2.6540399091158875
aF4.506445021872949
aF4.0695182378326065
aF2.863993728939758
aa(lp84
F0.0
aF0.0
aF0.0
aF0.0
aa(lp85
F0.0
aF0.0
aF0.0
aF0.0
aa(lp86
F-0.7325801020092726
aF-0.5752870952733712
aF-0.5924977331129833
aF-1.318836716356537
aa(lp87
F-1.7165175363393272
aF-0.5592687921464311
aF-0.9389048349288431
aF-1.5983931657915944
aa(lp88
F-2.9267284087329344
aF-3.3045508287585887
aF-1.7517095796252482
aF-3.6579676624544017
aa(lp89
F-3.3599148269001633
aF-3.5609181876647504
aF-3.024657831678901
aF-3.76125
aa(lp90
F-3.5248987379534373
aF-3.5519266428221488
aF-3.7784562964204134
aF-2.9803125
aa(lp91
F-2.8268750000000002
aF-2.312119156571102
aF-3.3
aF-3.9767294037923917
aa(lp92
F-2.14078125
aF-2.7
aF-1.725
aF-0.25757648377047704
aa(lp93
F-1.3331851312493874
aF-1.61875
aF-1.0
aF-0.2561820158818176
aa(lp94
F2.15225386660014
aF-0.5
aF-1.9589389411263174
aF-0.012703661944468536
aa(lp95
F2.7050054189368526
aF0.0
aF0.21785387056091476
aF1.056800514688384
aa(lp96
F1.8415097459934664
aF2.435119270878345
aF1.3208071016220948
aF1.3769252575364395
aa(lp97
F2.3530273414793514
aF2.812279646150678
aF2.4212172382987607
aF2.416646011765269
aa(lp98
F0.0
aF0.0
aF0.0
aF0.0
aa(lp99
F0.0
aF0.0
aF0.0
aF0.0
aa(lp100
F-0.11916905834789768
aF-0.7330959953622748
aF-0.6248365737042585
aF-0.7583697948503034
aa(lp101
F-1.1692689193047514
aF-0.8960746160505191
aF-0.1876575428682839
aF-2.1942023399963184
aa(lp102
F-1.011613366676745
aF-2.514142035251572
aF-2.602120619222534
aF-3.8244706088459974
aa(lp103
F-3.044982523456347
aF-3.804754183457298
aF-1.2848995334290132
aF-3.905981213477976
aa(lp104
F-2.971670797435549
aF-3.793733123767093
aF-3.2355624999999995
aF-2.4859992236660475
aa(lp105
F-2.822959916298558
aF-2.798684592583336
aF-3.27125
aF-1.865648970073357
aa(lp106
F-1.0
aF-1.3375
aF-1.5
aF-0.08776058454493396
aa(lp107
F-0.5
aF0.1360696541176859
aF-1.8137499999999998
aF-0.5
aa(lp108
F1.213948131883059
aF-0.5
aF-0.75
aF0.0
aa(lp109
F0.7334409376153144
aF0.6631193702111703
aF-0.5
aF3.0928850285480274
aa(lp110
F1.600497676115428
aF0.7688883075293271
aF1.729910857680807
aF2.6244209987166034
aa(lp111
F2.30453051101222
aF2.604112327288353
aF2.182263928327033
aF2.1808070929651824
aa(lp112
F0.0
aF0.0
aF0.0
aF0.0
aa(lp113
F0.0
aF0.0
aF0.0
aF0.0
aa(lp114
F0.18998484594900006
aF-0.20504410220502747
aF0.033182281581928846
aF-0.18464990279339344
aa(lp115
F0.0664610814480957
aF-0.5990779163187502
aF-0.6639601150874814
aF-1.5857603860198475
aa(lp116
F-2.207711996633405
aF-2.013385628407481
aF0.08824626711969688
aF-3.3288464662910195
aa(lp117
F-1.3387707276129976
aF-1.8797358819685153
aF-1.7020186593824356
aF-2.201540695421415
aa(lp118
F-1.5466823665224454
aF-2.7992574353839883
aF-2.818009967691994
aF-2.71875
aa(lp119
F-2.1520830217328153
aF-3.9922935800253407
aF-2.9559403786529703
aF-2.2760448651699674
aa(lp120
F-0.2717848305280418
aF-1.638125
aF-1.7719922322531927
aF-1.539954445564043
aa(lp121
F0.0
aF-0.5
aF-0.5
aF0.586462294320746
aa(lp122
F0.16711317856455188
aF-0.41359788294755473
aF-0.6214329172659881
aF1.7662826841053176
aa(lp123
F1.4486819747542934
aF2.3002537682668676
aF0.9421291101812416
aF1.3462550285379211
aa(lp124
F1.5377168070270353
aF2.0035407890036394
aF1.501137755710686
aF2.052019596077239
aa(lp125
F1.9267157980082916
aF2.3004544145353667
aF1.798863527699429
aF1.979887550003788
aa(lp126
F0.0
aF0.0
aF0.0
aF0.0
aa(lp127
F0.0
aF0.0
aF0.0
aF0.0
aa(lp128
F-0.7770771291781005
aF0.1665347907614762
aF0.12489580620434036
aF0.08434014991495634
aa(lp129
F0.3982911728623767
aF-0.23900200053264253
aF-0.15535416367390828
aF0.0010449594525044903
aa(lp130
F-0.8885655668111065
aF-0.8981991194323939
aF-0.30617999972082227
aF-1.2525721467470163
aa(lp131
F0.04849163853223791
aF-2.7756201150286595
aF-0.722257052658491
aF-1.156321835871801
aa(lp132
F0.8233725876731371
aF-2.7451284240310274
aF-1.9480238291009084
aF-0.5974765427781024
aa(lp133
F-0.938125360776733
aF-1.0
aF-1.6363928236296401
aF-0.39803689281440086
aa(lp134
F-0.531228833618127
aF-1.0
aF-0.5
aF1.1288617709493425
aa(lp135
F1.095304977655634
aF0.0
aF0.0
aF-0.5
aa(lp136
F0.0
aF1.740313401036937
aF-0.5
aF0.0
aa(lp137
F1.3661715845017146
aF2.049436994671228
aF1.0657453428007801
aF1.3795612519441127
aa(lp138
F1.4294072517563592
aF1.3549968794841778
aF1.5300551344323343
aF2.108383342151782
aa(lp139
F1.664966617775589
aF1.967406197892087
aF1.919691760379013
aF1.8586244378259846
aa(lp140
F0.0
aF0.0
aF0.0
aF0.0
aa(lp141
F0.0
aF0.0
aF0.0
aF0.0
aa(lp142
F0.5854773297394691
aF0.3213646654259855
aF0.23156865533952506
aF0.2571534299372674
aa(lp143
F0.42310942525122597
aF0.3362899817404409
aF0.2917731272146509
aF0.2211457489404803
aa(lp144
F-0.11650008805031442
aF-0.26874771838656314
aF0.6483610694866327
aF0.11496912531209313
aa(lp145
F-0.2829216212340965
aF-0.673772219737182
aF-0.9943449335204734
aF0.6036967086875079
aa(lp146
F0.9724901685100651
aF-0.9331431199058933
aF0.4921137840427506
aF0.13049424306522062
aa(lp147
F0.9690617794173879
aF-0.6027262121474051
aF0.17431125059550728
aF-0.38403173123659123
aa(lp148
F1.084502357552285
aF-0.8216945893367466
aF0.8045520432488553
aF0.9096988661861153
aa(lp149
F0.6648313257934452
aF0.5027711996304512
aF0.7827635709017254
aF1.6281497137642846
aa(lp150
F1.2878972117149634
aF0.8195827464483759
aF1.3502917492439215
aF1.6500387644373875
aa(lp151
F1.6061879332075795
aF1.3822475297194912
aF1.3945541820506249
aF1.8498420949007914
aa(lp152
F1.6029793387028348
aF1.7367314148491744
aF1.6172635956593826
aF1.7002759318797886
aa(lp153
F1.8387144173230898
aF1.8162171862779757
aF1.4679298845284858
aF1.5295781020597286
aa(lp154
F0.0
aF0.0
aF0.0
aF0.0
aa(lp155
F0.0
aF0.0
aF0.0
aF0.0
aa(lp156
F0.5838363070263484
aF0.39213210093475065
aF0.42517948423316776
aF0.45048570371668734
aa(lp157
F0.6801909019845296
aF0.25113725003842047
aF0.44862514307339074
aF0.4035506315048162
aa(lp158
F0.5824357690731938
aF0.5324823411109001
aF0.5025378412969217
aF0.7095009153689439
aa(lp159
F0.8237807414381818
aF0.11046924986586087
aF0.2365374412658548
aF0.26711644345711044
aa(lp160
F0.7811713452789821
aF0.7468538441987239
aF0.7906583008477281
aF0.9445544836543739
aa(lp161
F0.8701625097547007
aF-0.018749375911911614
aF0.8122480283951707
aF1.2315053574459844
aa(lp162
F0.9826719495876313
aF0.9067642190548808
aF0.9492326139722771
aF0.9672883387691957
aa(lp163
F1.0256296265124818
aF1.2342321439112047
aF0.9868294986565441
aF1.555312146407482
aa(lp164
F1.2086318327241838
aF1.189788427641084
aF1.2847076123924184
aF1.641886757042223
aa(lp165
F1.3343372759601144
aF0.690915432971771
aF1.2169503049596475
aF1.6469444283057944
aa(lp166
F0.92472413583414
aF1.7276281565884783
aF1.4056306836307535
aF1.4706638643334489
aa(lp167
F1.101742989796054
aF1.8117530203332999
aF1.6694083914141908
aF1.6382900212965408
aa(lp168
F0.0
aF0.0
aF0.0
aF0.0
aa(lp169
F0.0
aF0.0
aF0.0
aF0.0
aa(lp170
F0.47849002085098796
aF0.5232574396900513
aF0.5691155728147338
aF0.5252802249755597
aa(lp171
F0.5318795361944421
aF0.35420950198748813
aF0.37982675318496717
aF0.7225099484020552
aa(lp172
F0.5790448225979423
aF0.6300069140326862
aF0.579598549224181
aF0.7624858695330009
aa(lp173
F0.46278589693858774
aF0.7708070338548982
aF0.6383721362644
aF0.910473761608946
aa(lp174
F0.7838941319519868
aF0.8783322222636096
aF0.7618923201265405
aF0.8484686501189188
aa(lp175
F0.8797854427261552
aF0.8739186425780106
aF0.8170837775459421
aF1.1253047611637164
aa(lp176
F0.9908304649289223
aF1.0985347738792637
aF0.8355365011715435
aF1.0936649566695125
aa(lp177
F1.2095614005032902
aF0.8606495012192705
aF0.8897339030903431
aF1.4128720679559232
aa(lp178
F0.9518764532958324
aF1.5065300034462332
aF0.27908476707290353
aF1.0537542696695432
aa(lp179
F0.7132258985217464
aF1.7508484714552002
aF1.0684790785879525
aF1.105554628827014
aa(lp180
F0.0
aF1.6010642303636746
aF1.0351218025067608
aF0.4495106501094378
aa(lp181
F0.0
aF1.667975155409228
aF0.3690093309843197
aF0.0
aa(lp182
F0.0
aF0.0
aF0.0
aF0.0
aa(lp183
F0.0
aF0.0
aF0.0
aF0.0
aa(lp184
F0.0
aF0.0
aF0.0
aF0.0
aa(lp185
F0.0
aF0.0
aF0.0
aF0.0
aa(lp186
F0.0
aF0.0
aF0.0
aF0.0
aa(lp187
F0.0
aF0.0
aF0.0
aF0.0
aa(lp188
F0.0
aF0.0
aF0.0
aF0.0
aa(lp189
F0.0
aF0.0
aF0.0
aF0.0
aa(lp190
F0.0
aF0.0
aF0.0
aF0.0
aa(lp191
F0.0
aF0.0
aF0.0
aF0.0
aa(lp192
F0.0
aF0.0
aF0.0
aF0.0
aa(lp193
F0.0
aF0.0
aF0.0
aF0.0
aa(lp194
F0.0
aF0.0
aF0.0
aF0.0
aa(lp195
F0.0
aF0.0
aF0.0
aF0.0
aa(lp196
F0.0
aF0.0
aF0.0
aF0.0
aa.