(lp0
(lp1
F0.0
aF0.0
aF0.0
aF0.0
aa(lp2
F0.0
aF0.0
aF0.0
aF0.0
aa(lp3
F0.0
aF0.0
aF0.0
aF0.0
aa(lp4
F0.0
aF0.0
aF0.0
aF0.0
aa(lp5
F0.0
aF0.0
aF0.0
aF0.0
aa(lp6
F0.0
aF0.0
aF0.0
aF0.0
aa(lp7
F0.0
aF0.0
aF0.0
aF0.0
aa(lp8
F0.0
aF0.0
aF0.0
aF0.0
aa(lp9
F0.0
aF0.0
aF0.0
aF0.0
aa(lp10
F0.0
aF0.0
aF0.0
aF0.0
aa(lp11
F0.0
aF0.0
aF0.0
aF0.0
aa(lp12
F0.0
aF0.0
aF0.0
aF0.0
aa(lp13
F0.0
aF0.0
aF0.0
aF0.0
aa(lp14
F0.0
aF0.0
aF0.0
aF0.0
aa(lp15
F0.0
aF0.0
aF0.0
aF0.0
aa(lp16
F0.0
aF0.0
aF0.0
aF1.758809775641438
aa(lp17
F2.1332567083226577
aF1.4434263767292912
aF0.0
aF0.0
aa(lp18
F2.0153668261468645
aF0.0
aF0.0
aF0.0
aa(lp19
F2.720232608897625
aF0.0
aF0.0
aF0.0
aa(lp20
F0.0
aF0.0
aF0.0
aF3.305056175562248
aa(lp21
F3.3207389180855515
aF0.0
aF0.10563537957131494
aF0.7083159840256245
aa(lp22
F4.866160468583107
aF1.7504679359942044
aF0.4911625003770385
aF0.0
aa(lp23
F5.418591483174907
aF0.0
aF0.0
aF0.0
aa(lp24
F1.7603999837120843
aF0.0
aF0.0
aF7.627599551049579
aa(lp25
F4.6872843311081045
aF0.0
aF0.6834375
aF8.372688353070465
aa(lp26
F4.510304211320646
aF2.6016761353251647
aF4.00535477330868
aF8.945375630736203
aa(lp27
F0.0
aF0.0
aF0.0
aF0.0
aa(lp28
F0.0
aF0.0
aF0.0
aF0.0
aa(lp29
F0.0
aF0.0
aF0.0
aF0.0
aa(lp30
F0.0
aF1.7817668271248153
aF0.0
aF0.0
aa(lp31
F0.0
aF1.6862769894892782
aF1.6270238683820337
aF2.4950209565926644
aa(lp32
F0.9005571281875603
aF1.8778356971567702
aF1.5902414971275285
aF2.2699157374632355
aa(lp33
F1.8116941514657454
aF0.664174192730301
aF1.8025977519265504
aF3.3668491019435667
aa(lp34
F1.9270175246768302
aF1.9262534500905364
aF1.4352956594083282
aF3.9251671236937087
aa(lp35
F2.526550499094707
aF2.3110131324187724
aF2.1296212133699304
aF5.521868255504051
aa(lp36
F2.5135581201645802
aF3.77828809044943
aF3.1341925644779143
aF5.7800412826401395
aa(lp37
F3.7298263078744887
aF3.589194268752405
aF3.975601793710472
aF4.557425537016581
aa(lp38
F4.652483687892319
aF7.415770464992751
aF4.459964216813788
aF5.3393869283032105
aa(lp39
F0.0
aF3.891398624128122
aF5.420285588812525
aF4.427645825056118
aa(lp40
F6.595839686610489
aF7.134547864565298
aF6.5217002313839485
aF8.836062699048508
aa(lp41
F6.661012608989256
aF9.957919370928675
aF7.570823204640071
aF7.941793884534606
aa(lp42
F0.0
aF0.0
aF0.0
aF0.0
aa(lp43
F0.0
aF0.0
aF0.0
aF0.0
aa(lp44
F0.06957403507214126
aF1.6709310638163246
aF0.8973688648176765
aF0.8247566801563362
aa(lp45
F-0.42579303355065484
aF1.6294688167751403
aF0.4836734865105119
aF0.5587949372436485
aa(lp46
F-0.725
aF2.3013560053707938
aF0.43949171915748975
aF-0.3553295037442219
aa(lp47
F-1.2077735110153793
aF2.75522641903291
aF0.7662357872594932
aF1.0810916684324186
aa(lp48
F-1.03413008604267
aF4.369487800464502
aF-1.4529944633270577
aF1.8110792308058277
aa(lp49
F-0.5800039066750958
aF3.951062525196801
aF-0.75
aF-0.5
aa(lp50
F-1.225
aF3.276342041181251
aF-0.23587280357237217
aF0.8661961577714528
aa(lp51
F0.0
aF0.0
aF0.6182135642019428
aF3.5802724347867785
aa(lp52
F-0.5
aF4.947531926541037
aF0.0
aF2.7296846363007874
aa(lp53
F0.0
aF2.8588454576086977
aF3.1608510571530073
aF6.888306481968416
aa(lp54
F4.67931800600573
aF2.478755283054791
aF4.8617667713525865
aF7.934152652602924
aa(lp55
F6.669259752978034
aF8.620062954479774
aF6.9250241313966026
aF6.400397479445858
aa(lp56
F0.0
aF0.0
aF0.0
aF0.0
aa(lp57
F0.0
aF0.0
aF0.0
aF0.0
aa(lp58
F0.05101602471104455
aF1.0226923379888007
aF-0.44801719411492136
aF0.436397808232172
aa(lp59
F0.2640276498524158
aF-0.31739105800671275
aF-0.07925495009008632
aF-0.64965196154285
aa(lp60
F-1.1202773520154645
aF-2.147473132962398
aF1.4889193010371609
aF-1.8516096902562356
aa(lp61
F-1.45
aF2.319957994442327
aF-0.814338890091131
aF-2.0210808806989338
aa(lp62
F-2.965
aF-1.9707090040314736
aF-2.075
aF-0.41644806930084866
aa(lp63
F-1.95
aF2.389327304613297
aF-1.5
aF-1.0
aa(lp64
F0.0
aF0.0
aF-1.0
aF2.9485020080327153
aa(lp65
F-1.0
aF3.0052181906045408
aF-1.0
aF-0.5
aa(lp66
F-0.5
aF-0.5
aF0.0
aF5.523644682088602
aa(lp67
F0.0
aF4.938345676514906
aF-0.5
aF0.0
aa(lp68
F4.262428000779662
aF7.033524264873472
aF1.3469093084613415
aF3.4270495958250793
aa(lp69
F4.960345211901898
aF6.741863724981075
aF4.467154751298856
aF5.586032216340476
aa(lp70
F0.0
aF0.0
aF0.0
aF0.0
aa(lp71
F0.0
aF0.0
aF0.0
aF0.0
aa(lp72
F0.12171527584459446
aF0.6788091889469245
aF0.14179101371166317
aF-0.18263923770423474
aa(lp73
F0.09335280871462168
aF-1.6717335777906808
aF-1.092395123525425
aF-1.3778040601601664
aa(lp74
F-3.7523054158070472
aF-1.335024447101968
aF-1.6190608243279994
aF-3.435657993068159
aa(lp75
F-4.270602615537383
aF-3.7728635689566072
aF-3.246497223184399
aF-5.0657114199326845
aa(lp76
F-4.535034724791774
aF-0.9495652981347252
aF-4.172428163748332
aF-2.9625
aa(lp77
F-3.763125
aF-0.6855187188383223
aF-2.25
aF-2.45
aa(lp78
F-1.5
aF-1.480846789100647
aF-1.95
aF-2.0
aa(lp79
F-1.0
aF-1.25
aF-1.5
aF-0.9753962800496441
aa(lp80
F-0.5
aF0.0
aF0.0
aF1.3070796058629581
aa(lp81
F3.7977511196105267
aF0.0
aF-0.5
aF0.0
aa(lp82
F4.073251038424108
aF6.595611939301438
aF1.4004065139237598
aF3.145083618722205
aa(lp83
F3.935861394477832
aF5.696496437635439
aF5.8929373861048955
aF5.595944930986896
aa(lp84
F0.0
aF0.0
aF0.0
aF0.0
aa(lp85
F0.0
aF0.0
aF0.0
aF0.0
aa(lp86
F-1.031425063759873
aF0.6308554410103128
aF-0.3088292210733824
aF-0.391636714187807
aa(lp87
F-0.7539843861442435
aF0.24606663584792943
aF-0.9413110734555492
aF-1.3945329794375743
aa(lp88
F-2.9960714287963066
aF0.24543449096238062
aF-1.8579665848363778
aF-2.998508158016037
aa(lp89
F-4.13537573962679
aF-2.5917598252841403
aF-3.0768990893973314
aF-4.37859375
aa(lp90
F-4.28855954413131
aF-4.728757808476605
aF-5.115962022051887
aF-3.96875
aa(lp91
F-3.616860661116938
aF-3.075
aF-4.2096875
aF-2.3676527151942026
aa(lp92
F-1.25
aF-1.725
aF-3.0125
aF-1.0
aa(lp93
F-0.5
aF-1.675396280049644
aF-0.5
aF2.600002938337652
aa(lp94
F-0.5
aF-0.5
aF-0.5
aF2.510036592217598
aa(lp95
F0.0
aF0.05467493322301312
aF-0.5
aF4.363133984001125
aa(lp96
F3.364863898465524
aF2.515175140202434
aF2.3072858740416433
aF4.0884931411811305
aa(lp97
F4.193398335290268
aF5.405955627534438
aF4.313991377406968
aF4.611556852092113
aa(lp98
F0.0
aF0.0
aF0.0
aF0.0
aa(lp99
F0.0
aF0.0
aF0.0
aF0.0
aa(lp100
F-0.629471060926593
aF0.49885126732018664
aF-0.8399339164996885
aF-1.2901206200920778
aa(lp101
F-0.16026306086067557
aF-1.5405782357719588
aF-1.493409206321959
aF-2.645144675924386
aa(lp102
F-1.3442697439644384
aF-2.978997063086725
aF-0.5829927213208025
aF-3.5453082903720117
aa(lp103
F-3.6228
aF-4.094909698290413
aF-2.113424673964726
aF-3.8392724666628206
aa(lp104
F-3.4375124579977827
aF-4.023125
aF-3.2710001001849998
aF-3.9420214469968453
aa(lp105
F-2.4622474255826727
aF-3.0375
aF-3.6137499999999996
aF-2.4904037825696443
aa(lp106
F-0.3778051968610766
aF-1.5
aF-2.41375
aF-0.875
aa(lp107
F-0.5
aF-1.0
aF-0.453810574321049
aF-0.22735530099261225
aa(lp108
F1.8826671654296645
aF0.8743728749664398
aF-0.75
aF0.0
aa(lp109
F2.6439167829478194
aF0.0
aF-0.5
aF0.0
aa(lp110
F2.2497709974507853
aF4.550611936670039
aF2.153765761776661
aF1.6996637501135012
aa(lp111
F3.1828668527213155
aF5.007713979526122
aF4.402754158431134
aF3.801278051356969
aa(lp112
F0.0
aF0.0
aF0.0
aF0.0
aa(lp113
F0.0
aF0.0
aF0.0
aF0.0
aa(lp114
F-0.6432592921029192
aF-0.24827299384502197
aF-0.2585493777695109
aF-1.4980424763387323
aa(lp115
F-0.1267582861150989
aF-1.8550376065646546
aF-0.5017275051102928
aF-1.8946463594282041
aa(lp116
F-0.11463926375992677
aF-3.139204879612017
aF-0.5777378783445457
aF-2.5423343367349402
aa(lp117
F-3.010162491843146
aF-3.015625
aF-0.4941281680877625
aF-2.6870349035445207
aa(lp118
F-0.5542710936079682
aF-3.130417660445781
aF-2.635210974889135
aF-2.926024912770785
aa(lp119
F-1.3580429077131115
aF-1.5
aF-1.921875
aF0.5477873666645076
aa(lp120
F-0.875
aF-1.25
aF-1.725
aF0.8908066886335774
aa(lp121
F-1.3321784298485986
aF-0.5
aF-1.225
aF0.9076968785610935
aa(lp122
F2.0038589779733913
aF0.0891466262614049
aF-0.5
aF0.0
aa(lp123
F0.0
aF1.1118405852544488
aF0.0
aF2.8580281318340464
aa(lp124
F1.9062486011852051
aF2.815971198874312
aF2.600651575422204
aF3.7064817729739095
aa(lp125
F3.481257606104827
aF4.809969795038807
aF3.00018699940171
aF3.53682752254538
aa(lp126
F0.0
aF0.0
aF0.0
aF0.0
aa(lp127
F0.0
aF0.0
aF0.0
aF0.0
aa(lp128
F0.584018481057189
aF-0.04217711204472713
aF0.0
aF0.2062143315151814
aa(lp129
F-0.30719307030592424
aF-0.4360485887942121
aF-0.10776764294644325
aF-0.16947954313760297
aa(lp130
F0.3589133777141439
aF-1.175889187640401
aF-0.3672710596372104
aF-0.4583711233503312
aa(lp131
F1.0278571106029464
aF-2.426231311225325
aF-0.6108051947238602
aF-0.6283990939071477
aa(lp132
F1.052139142814559
aF-2.170011513070794
aF-2.210812781316138
aF-1.7464546855253593
aa(lp133
F1.618204515511358
aF-1.725
aF-1.0499295527452062
aF-0.9135233030413108
aa(lp134
F1.0694774503596944
aF-1.43875
aF-1.2
aF-0.48754703160448665
aa(lp135
F0.7322818836801535
aF-0.5
aF0.0
aF0.0
aa(lp136
F2.1136263404191804
aF0.0
aF0.0
aF0.0
aa(lp137
F0.0
aF2.719134167506268
aF0.0
aF3.0650256419822473
aa(lp138
F2.2059372730400097
aF2.8381782444507735
aF2.685376116148655
aF3.394924717508084
aa(lp139
F2.913129999829366
aF3.6206549956954643
aF2.5771447308259825
aF2.8225351481462377
aa(lp140
F0.0
aF0.0
aF0.0
aF0.0
aa(lp141
F0.0
aF0.0
aF0.0
aF0.0
aa(lp142
F0.6022615476271562
aF0.1092037161824406
aF0.2522146194393822
aF-0.009516625835596678
aa(lp143
F0.7827341435930999
aF0.10988037757618263
aF0.2046519450346636
aF0.06561432297195469
aa(lp144
F0.7453002349999727
aF-0.5299254640666027
aF0.12936251355037306
aF-0.5496279396570005
aa(lp145
F0.9657662513551364
aF-0.7925969832643365
aF-0.23128148013058572
aF-0.059244776311345504
aa(lp146
F0.7637290663901902
aF-0.6777321663000465
aF0.7655539288203319
aF-0.5
aa(lp147
F0.6273630015418857
aF-1.0122901070770047
aF0.8500718619170496
aF1.7863160022174336
aa(lp148
F0.9193552377293658
aF-0.44525619349009116
aF0.0972715300060929
aF1.836752985755586
aa(lp149
F1.486913674739029
aF-0.09094630468786191
aF0.8980972236371331
aF2.1732080798279996
aa(lp150
F1.4396630712535594
aF0.8631215992786119
aF1.302509674430216
aF2.1703721566841185
aa(lp151
F1.8061738608719335
aF3.0526883458469083
aF2.0119402765373935
aF2.3200650421607447
aa(lp152
F2.512081444631714
aF3.143370253654913
aF2.512641609645751
aF2.3451259580622494
aa(lp153
F1.920865975746783
aF3.0517555236385383
aF2.0147290564778317
aF2.5291668498678286
aa(lp154
F0.0
aF0.0
aF0.0
aF0.0
aa(lp155
F0.0
aF0.0
aF0.0
aF0.0
aa(lp156
F0.8147192095158113
aF0.14206594088235336
aF0.9412323427633916
aF0.7114883516747585
aa(lp157
F0.862777882988442
aF0.7277509853344155
aF0.5865922359015291
aF0.6801610517880853
aa(lp158
F0.4224985550287921
aF0.0
aF0.6520615229445111
aF1.1893435524221943
aa(lp159
F0.92799839657984
aF0.28065489156639173
aF0.8160006253606547
aF0.6787323932709306
aa(lp160
F0.0
aF1.1431628338406323
aF0.8674712048113906
aF1.4476977148173469
aa(lp161
F0.8037894191128399
aF0.6229247580503142
aF0.7117124857119788
aF1.6930178241188658
aa(lp162
F1.6971700451000202
aF0.9317413378887656
aF1.009770676902337
aF1.29305628097481
aa(lp163
F1.3669182578256724
aF1.43982035743268
aF1.0927602848828786
aF2.0648297045261614
aa(lp164
F2.2700726063787626
aF1.775772342341801
aF1.5288095924127076
aF1.6899230218735113
aa(lp165
F1.7549514622938314
aF2.878957493164357
aF1.7574262120743558
aF1.5553995966539436
aa(lp166
F1.4846959984139934
aF3.0631509188529265
aF1.7958877249870313
aF1.9866693637278827
aa(lp167
F1.3871937739267455
aF2.969523923542781
aF2.3365634446609835
aF2.0364664587367027
aa(lp168
F0.0
aF0.0
aF0.0
aF0.0
aa(lp169
F0.0
aF0.0
aF0.0
aF0.0
aa(lp170
F0.6571136461150964
aF0.5279828781460625
aF0.5423301646464532
aF1.007363955462304
aa(lp171
F0.82824613146844
aF0.7398891367629603
aF0.9418499354509711
aF1.04542722813316
aa(lp172
F0.9830796933628028
aF0.9797832155986334
aF0.7389810805038552
aF1.1715402283536474
aa(lp173
F0.8110028437804034
aF0.9774692822177584
aF0.983874193010335
aF1.2129341726949345
aa(lp174
F1.1406233872690712
aF1.1240487707436244
aF1.0314592462022163
aF1.5283412364268467
aa(lp175
F1.233073202914774
aF1.3113143276035928
aF1.2680043587501126
aF1.7178384808351306
aa(lp176
F1.2936668091139136
aF1.7752920027874812
aF1.4812747512380349
aF1.8437949545033296
aa(lp177
F1.4770955368778287
aF1.3821134520361977
aF1.454644541424767
aF2.060843692851541
aa(lp178
F1.378999132518656
aF2.5364174600012417
aF1.5711162197969097
aF1.8677690710491728
aa(lp179
F1.7054256417776488
aF2.6252805220718747
aF1.9478286041189097
aF1.7149741759724588
aa(lp180
F1.8792456890862252
aF2.279274574366806
aF1.300550757529639
aF1.1417604849601202
aa(lp181
F1.7287491444912897
aF2.6088925561696463
aF1.1966951394114618
aF0.18162329630518276
aa(lp182
F0.0
aF0.0
aF0.0
aF0.0
aa(lp183
F0.0
aF0.0
aF0.0
aF0.0
aa(lp184
F0.0
aF0.0
aF0.0
aF0.0
aa(lp185
F0.0
aF0.0
aF0.0
aF0.0
aa(lp186
F0.0
aF0.0
aF0.0
aF0.0
aa(lp187
F0.0
aF0.0
aF0.0
aF0.0
aa(lp188
F0.0
aF0.0
aF0.0
aF0.0
aa(lp189
F0.0
aF0.0
aF0.0
aF0.0
aa(lp190
F0.0
aF0.0
aF0.0
aF0.0
aa(lp191
F0.0
aF0.0
aF0.0
aF0.0
aa(lp192
F0.0
aF0.0
aF0.0
aF0.0
aa(lp193
F0.0
aF0.0
aF0.0
aF0.0
aa(lp194
F0.0
aF0.0
aF0.0
aF0.0
aa(lp195
F0.0
aF0.0
aF0.0
aF0.0
aa(lp196
F0.0
aF0.0
aF0.0
aF0.0
aa.