(lp0
(lp1
F0.0
aF0.0
aF0.0
aF0.0
aa(lp2
F0.0
aF0.0
aF0.0
aF0.0
aa(lp3
F0.0
aF0.0
aF0.0
aF0.0
aa(lp4
F0.0
aF0.0
aF0.0
aF0.0
aa(lp5
F0.0
aF0.0
aF0.0
aF0.0
aa(lp6
F0.0
aF0.0
aF0.0
aF0.0
aa(lp7
F0.0
aF0.0
aF0.0
aF0.0
aa(lp8
F0.0
aF0.0
aF0.0
aF0.0
aa(lp9
F0.0
aF0.0
aF0.0
aF0.0
aa(lp10
F0.0
aF0.0
aF0.0
aF0.0
aa(lp11
F0.0
aF0.0
aF0.0
aF0.0
aa(lp12
F0.0
aF0.0
aF0.0
aF0.0
aa(lp13
F0.0
aF0.0
aF0.0
aF0.0
aa(lp14
F0.0
aF0.0
aF0.0
aF0.0
aa(lp15
F0.0
aF0.0
aF0.0
aF0.0
aa(lp16
F0.0
aF0.0
aF0.0
aF1.495381691590632
aa(lp17
F0.0
aF0.0
aF0.0
aF4.018525420173607
aa(lp18
F4.146063795988821
aF0.0
aF0.832496473318669
aF0.0
aa(lp19
F5.4682152963531365
aF3.1800116983341815
aF1.175079406956529
aF0.0
aa(lp20
F0.030753034275474215
aF1.4636630857328141
aF4.138243425651411
aF2.2873371760891907
aa(lp21
F3.463617748429779
aF2.6408913436234602
aF2.4719701781623833
aF5.810725085491991
aa(lp22
F6.366088057519732
aF4.1954381419684355
aF1.8753422267708182
aF5.082971502420424
aa(lp23
F6.331171664297343
aF4.187511659795389
aF5.045962960289733
aF4.824104613185957
aa(lp24
F3.909339696071455
aF3.915332160853966
aF4.112510834929653
aF5.9610002486242095
aa(lp25
F8.003406443179715
aF0.0
aF2.202297935301654
aF0.0
aa(lp26
F5.790540197622251
aF2.683505594289745
aF0.0
aF2.085914000114483
aa(lp27
F4.529304078472494
aF2.8724686881845565
aF0.0
aF2.8858429079267394
aa(lp28
F0.0
aF0.0
aF0.0
aF0.0
aa(lp29
F0.0
aF0.0
aF0.0
aF0.0
aa(lp30
F0.0
aF2.1035296720374443
aF0.0
aF3.7628543914631427
aa(lp31
F0.0
aF2.238472904979725
aF1.1856204117809452
aF4.5867417363900485
aa(lp32
F3.344591214441267
aF3.5908842097871188
aF4.0378074457409205
aF5.552002406443555
aa(lp33
F3.0153572960387667
aF3.815837948173795
aF4.161632594414464
aF5.898966936427527
aa(lp34
F3.8977874382963065
aF3.996957335787699
aF3.8488907767083598
aF5.859466033771696
aa(lp35
F4.721963846952688
aF4.947738982543864
aF3.945785311658842
aF6.242934528983564
aa(lp36
F4.476700717879707
aF5.24131753720653
aF5.247006603150798
aF6.64656051890462
aa(lp37
F5.110518754908069
aF5.095784202351205
aF6.163214009452745
aF6.283056608157115
aa(lp38
F8.334277244399845
aF5.982661134399943
aF6.493954380542794
aF6.663762974168829
aa(lp39
F8.903224801193602
aF4.87990243157627
aF5.82405419578238
aF5.677537534040418
aa(lp40
F4.939534631641617
aF3.9135017555288747
aF7.112557306437527
aF5.16049780411335
aa(lp41
F4.0701744033570275
aF4.0041772230445245
aF5.67468989800732
aF3.750403423726951
aa(lp42
F0.0
aF0.0
aF0.0
aF0.0
aa(lp43
F0.0
aF0.0
aF0.0
aF0.0
aa(lp44
F1.4212440764441705
aF0.0
aF0.0
aF3.950342549644737
aa(lp45
F1.9601737588629586
aF3.8915350845985177
aF2.8327859681181704
aF3.315537483618481
aa(lp46
F2.0217772159009577
aF5.176171094487376
aF2.020502321242855
aF2.3953255010355496
aa(lp47
F0.6002809140481566
aF5.498821278591286
aF-0.3443992684931174
aF2.769366043067593
aa(lp48
F-0.5766729780682893
aF5.313331232844089
aF-0.75
aF3.817408336461823
aa(lp49
F1.9293949965021473
aF5.6691588253009915
aF-0.5
aF5.121580527296748
aa(lp50
F0.428636528944514
aF3.2549580639828184
aF1.1375760822934522
aF6.92152442628479
aa(lp51
F2.8057989113080506
aF5.312769462953682
aF2.9113622452330516
aF4.848375189362473
aa(lp52
F5.209568814292963
aF2.25
aF5.1236275693020445
aF9.227214960179069
aa(lp53
F0.0
aF0.0
aF0.0
aF0.0
aa(lp54
F6.101277784995095
aF6.027391812977211
aF9.65837218383918
aF5.290082166337051
aa(lp55
F4.00829554101803
aF4.769390658991106
aF7.979920918105985
aF4.846723151160278
aa(lp56
F0.0
aF0.0
aF0.0
aF0.0
aa(lp57
F0.0
aF0.0
aF0.0
aF0.0
aa(lp58
F2.2404483179772052
aF3.3863613602824922
aF1.3114206432462425
aF1.7602889384445666
aa(lp59
F2.6302294934132657
aF4.337785181286015
aF2.6997653890898037
aF1.1347424088281608
aa(lp60
F1.3020885449361188
aF0.037109284121857655
aF2.956408977981466
aF0.823668493298139
aa(lp61
F-1.4112774220733186
aF3.1392011107757445
aF1.3524931997589609
aF0.32115853532876726
aa(lp62
F-3.03921875
aF-1.2743797655148068
aF-0.6824319541611774
aF2.697848350400376
aa(lp63
F-1.5
aF4.866300343766227
aF-0.665977970337875
aF0.7150650004019563
aa(lp64
F-1.0
aF5.417784902938152
aF-1.0
aF1.037705807058955
aa(lp65
F-1.0
aF5.709255609129799
aF-1.0
aF-1.475
aa(lp66
F0.0
aF5.0
aF0.0
aF6.2574775530791475
aa(lp67
F1.36786592617757
aF8.627210515384467
aF0.0
aF0.0
aa(lp68
F3.7872071209491778
aF7.1904342648021995
aF2.955652872339976
aF3.4501058987410147
aa(lp69
F3.8012588629517667
aF4.381427452078967
aF4.7201429702181565
aF3.8184018160970004
aa(lp70
F0.0
aF0.0
aF0.0
aF0.0
aa(lp71
F0.0
aF0.0
aF0.0
aF0.0
aa(lp72
F1.4966211941448573
aF2.780738716710807
aF1.997885672867634
aF1.8030855756110662
aa(lp73
F1.0791630826249001
aF2.8126274310528423
aF2.0853232996896747
aF0.7074189116874798
aa(lp74
F-2.003099438407242
aF2.3323203519133733
aF0.9593835463775834
aF-0.9384427545675815
aa(lp75
F-2.6619552734375
aF0.06671802281410338
aF-2.32875
aF-2.1112637999728134
aa(lp76
F-3.5095937499999996
aF1.131933418526759
aF-2.456351712842515
aF-3.564375
aa(lp77
F-2.293247954936194
aF0.14191754142780155
aF-2.2875
aF-2.45
aa(lp78
F-2.0981488403444075
aF-1.841067276305374
aF-2.9025
aF-1.6636969441005367
aa(lp79
F1.287668731112784
aF-1.0
aF-1.725
aF-0.5
aa(lp80
F0.0
aF0.0
aF0.3134191153677663
aF0.0
aa(lp81
F3.1738513566846964
aF0.0
aF0.0
aF3.0397020581723777
aa(lp82
F2.773720538049548
aF6.419406785873171
aF1.5673640600114083
aF4.138919482921537
aa(lp83
F3.6782849084729197
aF3.576902058405223
aF5.236604195525465
aF3.6535298559079896
aa(lp84
F0.0
aF0.0
aF0.0
aF0.0
aa(lp85
F0.0
aF0.0
aF0.0
aF0.0
aa(lp86
F1.3227426466376948
aF2.399919018687414
aF1.1495025199814861
aF1.0773975567264609
aa(lp87
F0.7836792862083194
aF-0.5228415198066783
aF2.2412994842618637
aF0.23312188550402146
aa(lp88
F-2.0347751610727602
aF-2.3969385757835093
aF1.4728945429286757
aF-2.4480625
aa(lp89
F-2.606041239700682
aF-1.5071993104684498
aF-2.3757295052955802
aF-3.760754374326119
aa(lp90
F-3.651875
aF-3.5018194108762843
aF-3.5143328327845
aF-3.6611648447812595
aa(lp91
F-2.449449304806799
aF-3.2034374999999997
aF-2.925
aF-2.1260912307767947
aa(lp92
F-1.3552900589867756
aF-1.5
aF-1.95
aF-0.4187914235938073
aa(lp93
F-0.5
aF-0.5
aF-1.5
aF1.8458273771192313
aa(lp94
F0.0
aF0.0
aF-1.0
aF1.3299853461184394
aa(lp95
F2.9595425474849835
aF0.0
aF-0.5
aF0.0
aa(lp96
F2.199747269293312
aF4.354512149074854
aF0.0
aF2.063252579677148
aa(lp97
F2.9946875932096635
aF4.163455187001803
aF3.052352095968808
aF3.130018530766414
aa(lp98
F0.0
aF0.0
aF0.0
aF0.0
aa(lp99
F0.0
aF0.0
aF0.0
aF0.0
aa(lp100
F0.48858957340794296
aF1.9120073345504172
aF0.4696800919261391
aF0.4878677741388129
aa(lp101
F-1.6481745103425618
aF1.5070414888229882
aF0.6883457499010853
aF-2.308743576685436
aa(lp102
F-0.36376881256561444
aF-1.8105235027949727
aF-2.1103777638946704
aF-2.5259375
aa(lp103
F-2.4564133665060606
aF-3.0252525594968707
aF-2.575
aF-3.1275
aa(lp104
F-2.4725
aF-2.925
aF-1.95
aF-2.2
aa(lp105
F-2.04375
aF-2.16080325630632
aF-2.45
aF-2.545
aa(lp106
F-1.4572520031999328
aF-2.0429016281531602
aF-2.475
aF-1.304331788459553
aa(lp107
F0.4248181441463156
aF-1.0
aF-0.975
aF-0.6353716216236327
aa(lp108
F2.370726012574875
aF-0.75
aF-0.5
aF0.0
aa(lp109
F0.31738176591614653
aF0.0
aF-0.75
aF3.062237874805516
aa(lp110
F2.3207163318374673
aF1.157530879844407
aF2.3622003023587705
aF3.289503373881449
aa(lp111
F2.8484438267795973
aF3.6540026669038115
aF2.7073381145656414
aF2.8053399516905557
aa(lp112
F0.0
aF0.0
aF0.0
aF0.0
aa(lp113
F0.0
aF0.0
aF0.0
aF0.0
aa(lp114
F0.5070490164310106
aF0.23976024789061684
aF0.0
aF-0.22020222990198868
aa(lp115
F1.0412152061474882
aF-0.4089404060372315
aF-0.725
aF-0.6417662719279976
aa(lp116
F-1.5022448972341902
aF-1.4320865882929963
aF0.483196162901706
aF-1.462806099289231
aa(lp117
F-0.729581578963942
aF-2.45625
aF-1.9689408454069406
aF-1.725
aa(lp118
F-1.3767782498721908
aF-1.2191109997069798
aF-1.2
aF-1.429238140996383
aa(lp119
F-2.2
aF-1.5
aF-1.8375
aF0.15356452439200474
aa(lp120
F-0.4914746153757909
aF-1.0
aF-1.66375
aF0.26068414000083706
aa(lp121
F1.0115719248722446
aF-0.08372889350083168
aF-0.5
aF2.606815410719881
aa(lp122
F2.682752891705447
aF0.2723238106754753
aF-0.5
aF0.0
aa(lp123
F1.4246597454594465
aF1.7131322360620183
aF2.043929843903527
aF2.9586369580011334
aa(lp124
F2.7824324562175846
aF2.8200621445926757
aF2.8439386412081546
aF2.7718494745195645
aa(lp125
F2.7047293721492185
aF3.3799379608992437
aF2.7285568051513582
aF2.672806638554932
aa(lp126
F0.0
aF0.0
aF0.0
aF0.0
aa(lp127
F0.0
aF0.0
aF0.0
aF0.0
aa(lp128
F0.0
aF0.6270896169548962
aF0.0
aF0.0
aa(lp129
F1.2311886209545155
aF0.43545717741757894
aF0.1505661593166735
aF-0.25
aa(lp130
F0.35959457945220163
aF-0.5
aF0.9495636826223257
aF-0.5
aa(lp131
F1.3593325021998508
aF-0.5
aF-0.19566693195426704
aF-0.5935537044502643
aa(lp132
F-1.0091867139776052
aF-1.0
aF0.022334811892984308
aF-0.8494777299037459
aa(lp133
F0.903556461016837
aF-1.0
aF-0.7699934344710602
aF-0.75
aa(lp134
F1.3090193175224614
aF-0.5
aF-0.734534672277817
aF-0.32694230057656176
aa(lp135
F0.0
aF0.0
aF-0.734534672277817
aF2.4959119587270067
aa(lp136
F2.289034720672985
aF2.868256702346283
aF1.4765006841032784
aF1.8739220354814563
aa(lp137
F2.283819281466677
aF2.7262128784683126
aF2.4680287608214027
aF2.582127202216549
aa(lp138
F2.572483496526061
aF2.6338365337957628
aF1.6527244935511005
aF2.537079613815334
aa(lp139
F2.590820299152658
aF2.98282176689255
aF2.642620883383206
aF2.569907822297843
aa(lp140
F0.0
aF0.0
aF0.0
aF0.0
aa(lp141
F0.0
aF0.0
aF0.0
aF0.0
aa(lp142
F1.1674066696757244
aF0.0
aF0.0
aF0.0
aa(lp143
F0.0
aF0.0
aF0.0
aF1.3949765486232382
aa(lp144
F0.7244179621395039
aF-0.20696379958138478
aF0.0
aF1.3849198892388463
aa(lp145
F0.17694903014511865
aF-0.680752872992757
aF0.6770892816334795
aF1.6429050580770155
aa(lp146
F1.7921337027471071
aF-0.8796809666170586
aF0.6912260709049559
aF0.7135287893341291
aa(lp147
F1.8484309424607241
aF-0.5221324642796351
aF0.7422351440352535
aF0.6823687929423817
aa(lp148
F2.0782316875369253
aF-0.6911822595836219
aF0.316648816064092
aF-0.5
aa(lp149
F1.7770002367577535
aF1.5549115171085108
aF1.5500094741349384
aF2.2220153995382352
aa(lp150
F2.1222756403239837
aF2.3941740105008398
aF2.1649953638067547
aF1.9342236553487728
aa(lp151
F1.8870919121025915
aF2.4333559093424695
aF2.1002459736737005
aF2.253900300812503
aa(lp152
F1.8327357537811397
aF0.0
aF1.1410562830074429
aF3.063380038650612
aa(lp153
F2.2176107682659447
aF2.905884669527671
aF1.7274885717958512
aF1.8791615886014408
aa(lp154
F0.0
aF0.0
aF0.0
aF0.0
aa(lp155
F0.0
aF0.0
aF0.0
aF0.0
aa(lp156
F0.9443991531747894
aF0.9032074624265964
aF1.0353996472932039
aF1.4362493891405141
aa(lp157
F1.1326119632965386
aF1.07639459864387
aF0.9696400638558402
aF1.4836156259222775
aa(lp158
F1.244190629180106
aF1.2426609235703636
aF1.2820660414780747
aF1.638085149618701
aa(lp159
F1.2525240004860352
aF1.3395169449310562
aF1.4711437174995836
aF1.7510233898217828
aa(lp160
F1.6336471964589319
aF1.419216574094531
aF1.374529650049045
aF1.8909626520266642
aa(lp161
F1.7309378474032884
aF1.598514061042716
aF1.4280483754548015
aF1.9762695058200488
aa(lp162
F1.7056923587597554
aF2.1346645473380708
aF1.7481922469200426
aF2.0820244726798225
aa(lp163
F1.8941237474982013
aF2.0757406544349917
aF1.6733762290692091
aF1.9980479810635554
aa(lp164
F1.8331488020997875
aF2.4401842273778724
aF2.061131518564137
aF2.0442592369627146
aa(lp165
F1.5209382152290911
aF2.585138109881915
aF0.9951531751219682
aF1.390256535795875
aa(lp166
F0.9160763892178782
aF1.5657507893493388
aF1.8446140942623765
aF2.500990209712666
aa(lp167
F1.9571819393310277
aF2.9501420873695916
aF1.6055757761358769
aF2.1485428810835727
aa(lp168
F0.0
aF0.0
aF0.0
aF0.0
aa(lp169
F0.0
aF0.0
aF0.0
aF0.0
aa(lp170
F1.1227825237782452
aF0.9832939870990984
aF1.1043938160675075
aF1.237441168697646
aa(lp171
F0.6597904902907209
aF1.0130791610845928
aF1.1956850800350483
aF1.4160452889165822
aa(lp172
F0.6109293228648766
aF1.0620623393716009
aF1.1442235550242454
aF1.4804708062192553
aa(lp173
F1.3327569585979862
aF1.0722185786833962
aF0.710157702186287
aF1.7209987236102435
aa(lp174
F1.1510084057747605
aF1.4560887536765053
aF1.3701733148930964
aF1.8415081454199258
aa(lp175
F1.5687706058776816
aF1.9798712580427678
aF0.8223232868226112
aF1.706131420992341
aa(lp176
F1.2456867795516362
aF2.065175831986142
aF1.3221767306650287
aF1.1614867908663444
aa(lp177
F0.3379978860840495
aF2.303731311894939
aF1.448570096741956
aF0.676186704855177
aa(lp178
F0.4361621169716541
aF2.1913879140115444
aF0.0
aF0.0
aa(lp179
F0.0
aF0.0
aF0.0
aF1.878182351737362
aa(lp180
F0.9659602965820442
aF1.9706789608317654
aF0.0
aF1.0386943543015628
aa(lp181
F0.9984961112521661
aF2.401184746296049
aF1.043557560552475
aF0.0
aa(lp182
F0.0
aF0.0
aF0.0
aF0.0
aa(lp183
F0.0
aF0.0
aF0.0
aF0.0
aa(lp184
F0.0
aF0.0
aF0.0
aF0.0
aa(lp185
F0.0
aF0.0
aF0.0
aF0.0
aa(lp186
F0.0
aF0.0
aF0.0
aF0.0
aa(lp187
F0.0
aF0.0
aF0.0
aF0.0
aa(lp188
F0.0
aF0.0
aF0.0
aF0.0
aa(lp189
F0.0
aF0.0
aF0.0
aF0.0
aa(lp190
F0.0
aF0.0
aF0.0
aF0.0
aa(lp191
F0.0
aF0.0
aF0.0
aF0.0
aa(lp192
F0.0
aF0.0
aF0.0
aF0.0
aa(lp193
F0.0
aF0.0
aF0.0
aF0.0
aa(lp194
F0.0
aF0.0
aF0.0
aF0.0
aa(lp195
F0.0
aF0.0
aF0.0
aF0.0
aa(lp196
F0.0
aF0.0
aF0.0
aF0.0
aa.