(lp0
(lp1
F0.0
aF0.0
aF0.0
aF0.0
aa(lp2
F0.0
aF0.0
aF0.0
aF0.0
aa(lp3
F0.0
aF0.0
aF0.0
aF0.0
aa(lp4
F0.0
aF0.0
aF0.0
aF0.0
aa(lp5
F0.0
aF0.0
aF0.0
aF0.0
aa(lp6
F0.0
aF0.0
aF0.0
aF0.0
aa(lp7
F0.0
aF0.0
aF0.0
aF0.0
aa(lp8
F0.0
aF0.0
aF0.0
aF0.0
aa(lp9
F0.0
aF0.0
aF0.0
aF0.0
aa(lp10
F0.0
aF0.0
aF0.0
aF0.0
aa(lp11
F0.0
aF0.0
aF0.0
aF0.0
aa(lp12
F0.0
aF0.0
aF0.0
aF0.0
aa(lp13
F0.0
aF0.0
aF0.0
aF0.0
aa(lp14
F0.0
aF0.0
aF0.0
aF0.0
aa(lp15
F0.0
aF0.0
aF0.0
aF0.0
aa(lp16
F0.0
aF0.0
aF0.8178559384096475
aF2.0476377627875415
aa(lp17
F3.012230153948047
aF0.0
aF0.0
aF0.0
aa(lp18
F2.8127969702624958
aF0.0
aF1.001642247651255
aF0.0
aa(lp19
F0.0
aF2.4000760770568244
aF0.4036545632679686
aF2.3444269906056863
aa(lp20
F2.9370443024694612
aF0.0
aF0.48692048671619365
aF0.0
aa(lp21
F4.939703003708713
aF0.0
aF0.0
aF0.0
aa(lp22
F1.1346595844424372
aF1.1346595844424372
aF0.0
aF5.143739623495387
aa(lp23
F6.091642236968351
aF0.0
aF0.0
aF0.0
aa(lp24
F5.911386683406813
aF0.0
aF3.4893771762990036
aF8.722220244125479
aa(lp25
F5.208344760243648
aF7.123462891563667
aF5.916491700612285
aF9.714877222292182
aa(lp26
F7.839668142091925
aF6.919646324636545
aF8.322810970398812
aF9.999977751715502
aa(lp27
F0.0
aF0.0
aF0.0
aF0.0
aa(lp28
F0.0
aF0.0
aF0.0
aF0.0
aa(lp29
F0.0
aF0.0
aF0.0
aF0.0
aa(lp30
F0.0
aF1.883046182730594
aF0.0
aF0.0
aa(lp31
F1.4270445455958511
aF0.28424048356445136
aF2.4539181350675907
aF3.4568467251577246
aa(lp32
F0.0
aF1.0743023507193061
aF1.2918510816279363
aF3.95449947957699
aa(lp33
F1.9200957119590127
aF1.6139076110346275
aF2.1928217210020726
aF4.527135145386627
aa(lp34
F1.3173820286855769
aF1.8309771325480568
aF1.4146640483111377
aF4.955012840483427
aa(lp35
F2.7692170854727913
aF3.132202832827983
aF2.5345475459698843
aF5.222764946441217
aa(lp36
F2.9830147343520728
aF1.3033542448916595
aF4.4145603412085945
aF6.272354375040559
aa(lp37
F5.408771120211862
aF5.15881414593135
aF2.950764170773928
aF7.321186362259356
aa(lp38
F0.0
aF8.13932967358286
aF0.0
aF5.243007610121193
aa(lp39
F7.384723101786025
aF5.603994243414473
aF0.0
aF0.0
aa(lp40
F7.512649276773104
aF9.674602697205895
aF6.5007087984838865
aF7.378548976359263
aa(lp41
F7.999649523367135
aF9.91389717188854
aF8.704761219195895
aF8.816674521262014
aa(lp42
F0.0
aF0.0
aF0.0
aF0.0
aa(lp43
F0.0
aF0.0
aF0.0
aF0.0
aa(lp44
F0.4880037488337596
aF1.6918907247838564
aF1.476083788649683
aF0.0
aa(lp45
F0.6434824176475045
aF2.988506972796696
aF0.5812633715545679
aF0.6825670210618295
aa(lp46
F-0.18997707223995486
aF2.891129540746812
aF1.19290067883137
aF0.9016136241728756
aa(lp47
F-1.0352877207450413
aF4.380262102423359
aF1.58686386344559
aF-0.459733691215237
aa(lp48
F-1.7663272580485678
aF-1.0740811074148624
aF0.9420154368048598
aF3.5504471994465567
aa(lp49
F-0.6971525887458219
aF5.48662559471298
aF0.009021794025651175
aF0.3029851904791747
aa(lp50
F0.0
aF5.500907931630476
aF2.050008378607053
aF0.22188387117245068
aa(lp51
F1.1362344557382555
aF3.0335701967950888
aF1.8095756416634816
aF6.520732689267483
aa(lp52
F3.1325043319731085
aF3.5123984224002287
aF2.445114677406578
aF7.1583329394700534
aa(lp53
F5.963261882488975
aF5.287307385379945
aF2.251680200428905
aF7.70474850188886
aa(lp54
F6.702764321776794
aF8.110352654796959
aF6.942301747115046
aF6.778080263308718
aa(lp55
F6.9604084029464826
aF8.797513870424282
aF7.383180129748768
aF7.280041451159448
aa(lp56
F0.0
aF0.0
aF0.0
aF0.0
aa(lp57
F0.0
aF0.0
aF0.0
aF0.0
aa(lp58
F-0.46922112661771054
aF2.1066851429984768
aF0.0
aF-0.3375
aa(lp59
F-0.008187540778956337
aF2.544524638351204
aF0.935139996146019
aF1.1717599155071592
aa(lp60
F-0.029832074856279256
aF2.408336770908189
aF1.8640521479429533
aF-0.7629023029835809
aa(lp61
F-1.8608173860959667
aF1.2745330457110247
aF-0.7426717624263761
aF-1.2476781730469613
aa(lp62
F-2.6823557075468085
aF2.4219054248335334
aF-1.0875
aF-1.5954575319389013
aa(lp63
F-2.8694477527539206
aF1.443467491740936
aF-2.9646875
aF-1.5
aa(lp64
F-1.5
aF3.4906043340918647
aF-1.0
aF0.025116091816415276
aa(lp65
F-0.9058785479608078
aF-0.2124419540917924
aF-1.0
aF4.048515169619242
aa(lp66
F0.0
aF6.35068416055778
aF0.0
aF3.502675374693875
aa(lp67
F2.436278250029334
aF7.079037947176987
aF0.0
aF0.0
aa(lp68
F0.0
aF7.706772693039305
aF5.139031022961772
aF3.346761861571257
aa(lp69
F6.412969166853818
aF7.866874012571445
aF6.316971544095022
aF6.153130822000875
aa(lp70
F0.0
aF0.0
aF0.0
aF0.0
aa(lp71
F0.0
aF0.0
aF0.0
aF0.0
aa(lp72
F0.3223303834752237
aF2.2424328408531222
aF1.2064434717770838
aF0.9855971118735424
aa(lp73
F-0.8417431423667208
aF1.6214870539488282
aF-0.1802661410951638
aF-0.7362227865185531
aa(lp74
F-3.7104159781173185
aF1.5930889210622339
aF-2.4650264561094546
aF-3.808265272806351
aa(lp75
F-2.8223418789266685
aF-0.22961572280884612
aF-2.7259433284730514
aF-3.7141600274501476
aa(lp76
F-3.6873069425030365
aF-3.2816303633831323
aF-3.3904598158152046
aF-2.683222833934921
aa(lp77
F-2.2878233993115273
aF0.6902791958637352
aF-2.925
aF-2.725
aa(lp78
F-1.0
aF-1.183481171875
aF-1.5
aF2.225605485636425
aa(lp79
F-0.75
aF-0.5
aF-1.5
aF1.8739063169100987
aa(lp80
F-0.5
aF-0.5
aF0.0
aF4.920743454317647
aa(lp81
F0.0
aF0.0
aF-0.5
aF5.749095110248737
aa(lp82
F4.955753644964711
aF3.478899034860229
aF1.2068747097604435
aF0.0
aa(lp83
F5.544547860031629
aF6.763832125677128
aF5.45484894148891
aF5.622723916050463
aa(lp84
F0.0
aF0.0
aF0.0
aF0.0
aa(lp85
F0.0
aF0.0
aF0.0
aF0.0
aa(lp86
F0.16037511499521684
aF0.044220327378656214
aF1.2169394013988484
aF-0.04566128431096428
aa(lp87
F-0.22625422542456036
aF1.4045079579519606
aF-0.186499539987094
aF-1.8268997215494842
aa(lp88
F-1.743120364918168
aF-0.17366079182566962
aF-3.0140391961038038
aF-3.528883144987282
aa(lp89
F-4.204972412268604
aF-4.180133554487341
aF-3.614965146868576
aF-3.5939091985091705
aa(lp90
F-3.58440920911462
aF-3.948203907601215
aF-3.616547709144332
aF-3.7384713186814267
aa(lp91
F-2.61959375
aF-3.465
aF-2.9183323270834487
aF-2.3076951139183715
aa(lp92
F-1.6345816440853749
aF-1.0
aF-1.0
aF-0.4492246604810648
aa(lp93
F-0.5
aF-1.0
aF-1.0
aF2.4761776711078762
aa(lp94
F-0.4739444743977481
aF-0.5
aF-1.0
aF4.221999665674586
aa(lp95
F2.0425772098976016
aF2.640699846781147
aF2.423588138630099
aF5.0009897886446755
aa(lp96
F2.625177016971202
aF4.933335798948209
aF3.4292593832861673
aF5.331163406604793
aa(lp97
F4.899429265126694
aF5.782106546971592
aF5.338950425186351
aF5.3632025388974025
aa(lp98
F0.0
aF0.0
aF0.0
aF0.0
aa(lp99
F0.0
aF0.0
aF0.0
aF0.0
aa(lp100
F1.0322929439606168
aF0.026118325925643227
aF0.19156151878732358
aF-0.03466696831738225
aa(lp101
F-1.4171631924317805
aF1.1616868510311111
aF-1.507564432188995
aF-1.6217968631765054
aa(lp102
F-0.1313601526884428
aF-2.6764638462784722
aF-2.0004163759343143
aF-3.45554140625
aa(lp103
F-3.2994459945450925
aF-3.4772760176213806
aF-2.2575430904224154
aF-3.695904439429062
aa(lp104
F-2.6619826636740336
aF-2.8305625
aF-3.0387031249999996
aF-3.2968416286184756
aa(lp105
F-1.1027082986340877
aF-1.8723350727406836
aF-2.24615625
aF-2.1075324035598544
aa(lp106
F-1.25
aF-1.3841976639899916
aF-2.45
aF0.27540576442580944
aa(lp107
F2.2679691681160827
aF-0.8193409198969055
aF-1.7
aF-0.75
aa(lp108
F3.5329490692265817
aF-0.39264891027372795
aF-0.5
aF1.2489795353808653
aa(lp109
F2.8844226071806007
aF4.715629349165812
aF0.5499033749698152
aF2.116550795403848
aa(lp110
F4.337364841173756
aF4.67665702622558
aF3.4358955163892446
aF4.815670746827303
aa(lp111
F4.336299522525469
aF5.295271265055913
aF4.6635045659645415
aF4.61684384745908
aa(lp112
F0.0
aF0.0
aF0.0
aF0.0
aa(lp113
F0.0
aF0.0
aF0.0
aF0.0
aa(lp114
F1.0919795002555253
aF0.37542215451136673
aF0.295504400236233
aF-0.10314786494483708
aa(lp115
F1.3375076552165297
aF-0.08636637683042603
aF0.020392769509268084
aF-0.03481882936403388
aa(lp116
F0.4173994555148627
aF-1.7843850744956853
aF-1.373988106812658
aF-1.4303406457639156
aa(lp117
F0.5566138976963131
aF-3.2669206945262963
aF-1.1342260606062813
aF-2.07625
aa(lp118
F-1.6113375293612386
aF-3.421732592795166
aF-1.7752620871811704
aF-1.0305648802294498
aa(lp119
F1.225083693980907
aF-1.225
aF-1.0
aF-1.5875
aa(lp120
F1.3375814167004645
aF-1.0
aF-1.0
aF-0.5
aa(lp121
F0.5283897070551846
aF-0.75
aF-0.975
aF2.977307396892664
aa(lp122
F1.6128203041954148
aF0.806619695757373
aF1.7291131422750246
aF4.253742801790382
aa(lp123
F3.569912327355432
aF4.338360250203964
aF2.8242332149906146
aF4.142775012010161
aa(lp124
F3.7184517616516253
aF4.935538899497992
aF3.3627374139381736
aF4.174982740755997
aa(lp125
F4.042216787463586
aF4.81401168762458
aF4.08012930393804
aF4.1904051754213905
aa(lp126
F0.0
aF0.0
aF0.0
aF0.0
aa(lp127
F0.0
aF0.0
aF0.0
aF0.0
aa(lp128
F1.3798540959519194
aF0.8071523995881362
aF0.6435335230201935
aF-0.05807833741363692
aa(lp129
F1.3664932555591007
aF0.8592508714511086
aF0.6695397856900369
aF-0.0678406496551342
aa(lp130
F1.450915197436856
aF-1.1034098835378823
aF-0.823777952571717
aF0.46146583736959634
aa(lp131
F1.5923660702418558
aF-1.1802672092193727
aF-0.7844305445680744
aF0.6579467378310819
aa(lp132
F2.138911415041424
aF-1.3405668861465556
aF-0.07215370650638975
aF-0.715025794267991
aa(lp133
F2.063033439466293
aF-1.3336066831109898
aF0.2791878842347196
aF0.350211711245911
aa(lp134
F2.5980188283252765
aF-0.44607582371125276
aF0.7878374887767393
aF-0.5
aa(lp135
F1.5402240869221373
aF-0.3232643194498499
aF1.7386371272031507
aF3.570266041206361
aa(lp136
F-0.4983067428208431
aF3.867706445536692
aF2.603501129956574
aF3.2728552414552814
aa(lp137
F3.1677945583018285
aF3.9285226615002276
aF3.2958182120911883
aF3.474400010578322
aa(lp138
F3.5893444495008486
aF4.3498598837231235
aF3.6435042287158677
aF3.3382489700658793
aa(lp139
F3.543285091948503
aF4.249796375032312
aF3.648959674957278
aF3.8670232506900892
aa(lp140
F0.0
aF0.0
aF0.0
aF0.0
aa(lp141
F0.0
aF0.0
aF0.0
aF0.0
aa(lp142
F1.6455572827414668
aF0.5598329685896256
aF0.0
aF0.6449957276869416
aa(lp143
F1.5731872410065777
aF0.46832497818044183
aF0.4352809096622152
aF0.9576570060834815
aa(lp144
F1.740095301845976
aF0.07291858472183382
aF1.0960826435252429
aF0.9174313996265975
aa(lp145
F1.2873507760087521
aF0.22967390007439564
aF0.5749266607929742
aF2.2704841313119744
aa(lp146
F1.7597932946475232
aF-0.020775888456603192
aF1.9395381219172763
aF2.472550579600332
aa(lp147
F2.262347177263707
aF1.1832314204831744
aF1.6995314986904329
aF1.8797411637988164
aa(lp148
F2.207711778164601
aF1.5954434088515117
aF2.2568418870011424
aF2.789380749852196
aa(lp149
F2.199375929695675
aF1.9894404895442106
aF2.446122148057012
aF3.0271537317780886
aa(lp150
F2.240302485678444
aF3.2609468692545365
aF2.698003975243693
aF2.635249648042644
aa(lp151
F2.850255299648177
aF3.602343490266215
aF2.6936027797370734
aF2.7471168616925663
aa(lp152
F3.1364490461997097
aF1.8828911070712886
aF2.8379767380523906
aF3.5271069011429566
aa(lp153
F3.079360924309449
aF3.8557374890845413
aF3.4405789526446857
aF3.230492821206247
aa(lp154
F0.0
aF0.0
aF0.0
aF0.0
aa(lp155
F0.0
aF0.0
aF0.0
aF0.0
aa(lp156
F1.1995985251212462
aF1.1387800343883827
aF1.4387938220942755
aF1.5942063257838581
aa(lp157
F1.4001462012345187
aF1.4755732489019668
aF1.3089715984011905
aF1.846381545726636
aa(lp158
F1.4043108662124761
aF1.4384682444120913
aF1.6198511202830699
aF1.9531989882817398
aa(lp159
F1.4810212373045903
aF1.5511342894458529
aF1.6582294286898545
aF2.134371507958955
aa(lp160
F1.6263083495969535
aF2.0340810419373887
aF1.6569883438643604
aF1.9304072822852143
aa(lp161
F1.5910982469283352
aF1.9679754342883378
aF1.8721611909839035
aF2.428673829826802
aa(lp162
F1.7889082859753347
aF2.1352392573854795
aF2.1436975049361022
aF2.7777573289609587
aa(lp163
F1.9779712274986172
aF3.063874646053027
aF1.1259405993721292
aF1.8619573324326086
aa(lp164
F2.404314772698169
aF2.979447677036024
aF2.474469213578942
aF1.851185477676236
aa(lp165
F2.440117660785064
aF1.5712456869830496
aF1.7039561454379533
aF2.306186007463121
aa(lp166
F1.9899349843797554
aF2.986700524968066
aF1.1417625392764144
aF2.3361301384477517
aa(lp167
F2.0703952692917538
aF3.4783277602394316
aF2.41406909963528
aF2.877364219683766
aa(lp168
F0.0
aF0.0
aF0.0
aF0.0
aa(lp169
F0.0
aF0.0
aF0.0
aF0.0
aa(lp170
F1.0848757690961446
aF1.6611698521314437
aF1.2834468602120057
aF1.2594301180690208
aa(lp171
F0.0
aF1.5706738475948807
aF0.0
aF0.6344713338142159
aa(lp172
F1.2847211064685542
aF0.7886772315952445
aF0.0
aF1.6284704708162823
aa(lp173
F1.2753978839146343
aF2.0129479744442493
aF0.5480525033908723
aF0.7480877156261281
aa(lp174
F0.7267878311381665
aF1.0717776288214815
aF1.4990011189548063
aF1.7239972177309808
aa(lp175
F1.7619596770475523
aF2.141072372307156
aF1.3655357382622868
aF0.9309125183570081
aa(lp176
F0.7323341816438359
aF1.1773427658003504
aF1.5326466099678948
aF1.9302758803715325
aa(lp177
F0.9851922137728351
aF0.0
aF0.0
aF2.177348710872827
aa(lp178
F1.05901927879725
aF0.0
aF1.4916880325850763
aF2.584973074524453
aa(lp179
F2.169342778004789
aF0.0
aF1.1619781303290997
aF2.74441345241304
aa(lp180
F0.1570151166512629
aF2.7804466328566324
aF2.3212128563318473
aF2.077128107676112
aa(lp181
F0.0
aF2.9558338981151273
aF1.2680179736432706
aF1.3813460702193834
aa(lp182
F0.0
aF0.0
aF0.0
aF0.0
aa(lp183
F0.0
aF0.0
aF0.0
aF0.0
aa(lp184
F0.0
aF0.0
aF0.0
aF0.0
aa(lp185
F0.0
aF0.0
aF0.0
aF0.0
aa(lp186
F0.0
aF0.0
aF0.0
aF0.0
aa(lp187
F0.0
aF0.0
aF0.0
aF0.0
aa(lp188
F0.0
aF0.0
aF0.0
aF0.0
aa(lp189
F0.0
aF0.0
aF0.0
aF0.0
aa(lp190
F0.0
aF0.0
aF0.0
aF0.0
aa(lp191
F0.0
aF0.0
aF0.0
aF0.0
aa(lp192
F0.0
aF0.0
aF0.0
aF0.0
aa(lp193
F0.0
aF0.0
aF0.0
aF0.0
aa(lp194
F0.0
aF0.0
aF0.0
aF0.0
aa(lp195
F0.0
aF0.0
aF0.0
aF0.0
aa(lp196
F0.0
aF0.0
aF0.0
aF0.0
aa.