(lp0
(lp1
F0.0
aF0.0
aF0.0
aF0.0
aa(lp2
F0.0
aF0.0
aF0.0
aF0.0
aa(lp3
F0.0
aF0.0
aF0.0
aF0.0
aa(lp4
F0.0
aF0.0
aF0.0
aF0.0
aa(lp5
F0.0
aF0.0
aF0.0
aF0.0
aa(lp6
F0.0
aF0.0
aF0.0
aF0.0
aa(lp7
F0.0
aF0.0
aF0.0
aF0.0
aa(lp8
F0.0
aF0.0
aF0.0
aF0.0
aa(lp9
F0.0
aF0.0
aF0.0
aF0.0
aa(lp10
F0.0
aF0.0
aF0.0
aF0.0
aa(lp11
F0.0
aF0.0
aF0.0
aF0.0
aa(lp12
F0.0
aF0.0
aF0.0
aF0.0
aa(lp13
F0.0
aF0.0
aF0.0
aF0.0
aa(lp14
F0.0
aF0.0
aF0.0
aF0.0
aa(lp15
F0.0
aF0.0
aF0.0
aF0.0
aa(lp16
F-1.4070894906914947e-06
aF-1.2560620924962635e-06
aF-1.1895283359480499e-06
aF-1.1442044953049974e-06
aa(lp17
F-7.974151545842273e-06
aF-1.4722852997369652e-05
aF-5.397360662263046e-07
aF-7.48993739454643e-06
aa(lp18
F-0.0019041488741059918
aF-0.000844993456297792
aF-7.308851053561711e-05
aF-0.000577524092563431
aa(lp19
F-0.008982470304041795
aF-0.056478814469196864
aF-0.05625
aF-0.00047796558414762
aa(lp20
F-0.12515625
aF-0.0076051961820098645
aF-0.11689453125
aF-0.0007551940431672426
aa(lp21
F-0.04913345987826457
aF-0.05715625069748721
aF-0.02148459154582078
aF-0.0010337156757098498
aa(lp22
F-0.030423154455106686
aF-0.0011750698448095747
aF-0.0019336832543379178
aF-0.005629709524077887
aa(lp23
F-9.626720679974504e-05
aF0.0
aF-0.0007193405843652019
aF0.0
aa(lp24
F0.0
aF0.0
aF0.0
aF0.0
aa(lp25
F0.0
aF0.0
aF0.0
aF0.0
aa(lp26
F0.0
aF0.0
aF0.0
aF0.0
aa(lp27
F0.0
aF0.0
aF0.0
aF0.0
aa(lp28
F0.0
aF0.0
aF0.0
aF0.0
aa(lp29
F0.0
aF0.0
aF0.0
aF0.0
aa(lp30
F-7.873509299649194e-07
aF-5.227336978072178e-05
aF-5.5029223723493305e-06
aF-1.7894946217121558e-05
aa(lp31
F-3.9567947969211866e-05
aF-3.8495323624190295e-05
aF-0.0002985383808537051
aF-0.00011531648212063354
aa(lp32
F-0.007473799346610685
aF-6.91375113205975e-05
aF-0.02812920221108365
aF-0.0178884933465352
aa(lp33
F-0.625
aF-0.016313645567722416
aF-0.5734023636628383
aF-0.5060693897475464
aa(lp34
F-1.05651171875
aF-0.37091999738284337
aF-0.3625
aF-0.018283659294650832
aa(lp35
F-1.0875
aF-0.012494256567343999
aF-0.9032090590405457
aF-0.25
aa(lp36
F-0.9375
aF-0.25
aF-0.02583172652841584
aF-0.5
aa(lp37
F-0.5
aF0.0
aF-0.25
aF-0.25
aa(lp38
F-0.9375
aF0.0
aF-0.5
aF0.0
aa(lp39
F0.0
aF0.0
aF0.0
aF0.0
aa(lp40
F0.0
aF0.0
aF0.0
aF0.0
aa(lp41
F0.0
aF0.0
aF0.0
aF0.0
aa(lp42
F0.0
aF0.0
aF0.0
aF0.0
aa(lp43
F0.0
aF0.0
aF0.0
aF0.0
aa(lp44
F-2.426743978459507e-05
aF-1.1665087344058343e-05
aF-2.644610752284533e-05
aF-5.894126322022092e-05
aa(lp45
F-0.0001822214982159564
aF-3.829368531867324e-05
aF-0.00024678684920711265
aF-0.0006694993193187776
aa(lp46
F-0.5000718528195913
aF-0.5035491065669123
aF-0.00026000046454394436
aF-0.5
aa(lp47
F-0.5
aF-0.0660220077168045
aF-0.014979143331929087
aF-0.5
aa(lp48
F-1.0
aF-0.177318765225851
aF-0.5
aF-0.75
aa(lp49
F-1.0
aF-1.0
aF-1.039828125
aF-0.55
aa(lp50
F-1.0
aF-0.03205165624498615
aF-0.5
aF-0.5
aa(lp51
F-1.0
aF0.0
aF-0.5
aF-0.5
aa(lp52
F-0.5
aF0.0
aF-0.5
aF0.0
aa(lp53
F-0.05625
aF-0.0017578125
aF-0.875
aF0.029764980448384507
aa(lp54
F0.25068962307564724
aF0.0
aF0.0
aF0.0
aa(lp55
F0.0
aF0.0
aF0.0
aF0.0
aa(lp56
F0.0
aF0.0
aF0.0
aF0.0
aa(lp57
F0.0
aF0.0
aF0.0
aF0.0
aa(lp58
F-0.0003972730631312548
aF-0.001139487195280903
aF-2.0377373943111625e-05
aF-0.0001434319436467616
aa(lp59
F-0.017500109778758266
aF-9.882720345831368e-06
aF-0.00715691864908174
aF-0.018719466885287687
aa(lp60
F-0.018463430121268075
aF-0.5127811568906664
aF-0.5
aF-0.4970816338204313
aa(lp61
F-0.75
aF-0.5
aF-0.12664449434780806
aF-1.725
aa(lp62
F-1.25
aF-0.5
aF-0.75
aF-1.0
aa(lp63
F-1.225
aF-1.07625
aF-1.0
aF-1.0
aa(lp64
F-2.7
aF0.0
aF-1.0
aF-0.5
aa(lp65
F-1.0
aF-0.5
aF-1.0
aF-0.5
aa(lp66
F-0.5
aF-0.5
aF-1.0
aF-0.1125
aa(lp67
F-0.5
aF-0.25
aF-0.75
aF-0.00048828125
aa(lp68
F1.0694054369941726
aF-0.000439453125
aF-0.0140625
aF-0.00703125
aa(lp69
F0.0
aF0.0
aF0.0
aF0.0
aa(lp70
F0.0
aF0.0
aF0.0
aF0.0
aa(lp71
F0.0
aF0.0
aF0.0
aF0.0
aa(lp72
F0.7704992744352035
aF0.3646050234248329
aF-2.940315929845232e-05
aF-0.0010068902642849996
aa(lp73
F-0.006355886184888939
aF-0.01429717744999362
aF0.29702775667455505
aF-0.007996287774424574
aa(lp74
F-0.3199364214752738
aF-0.02009514469673182
aF-0.3626029677781872
aF-1.4944531250000002
aa(lp75
F-1.0019953516850446
aF-0.98203208356226
aF-1.0
aF-1.0
aa(lp76
F0.0
aF-1.0
aF-0.5
aF-1.5
aa(lp77
F-1.5
aF-1.225
aF0.0
aF-1.5
aa(lp78
F-1.5
aF-1.0
aF-1.5
aF-1.0
aa(lp79
F-1.0
aF-1.5
aF-1.5
aF-0.5
aa(lp80
F-1.0
aF0.0
aF-1.225
aF0.46411432732230706
aa(lp81
F1.698522878520545
aF-0.028125
aF-0.75
aF-0.5
aa(lp82
F0.6936802672502823
aF0.0
aF-0.0011865234375
aF-0.000296630859375
aa(lp83
F0.3474732396554941
aF0.0
aF0.0
aF0.0
aa(lp84
F0.0
aF0.0
aF0.0
aF0.0
aa(lp85
F0.0
aF0.0
aF0.0
aF0.0
aa(lp86
F0.9196910604459292
aF0.6905887053770011
aF0.7713322367724843
aF0.734974676651818
aa(lp87
F0.9155392197206838
aF-0.0007468982323864393
aF-0.001758820534237143
aF-0.0018336837560758352
aa(lp88
F-0.1507751718866417
aF-0.6637500000000001
aF0.627273401834626
aF-1.0015625
aa(lp89
F-0.75
aF-0.5
aF-0.03500942214430323
aF-1.0
aa(lp90
F-1.0
aF0.0
aF-0.901875
aF0.0
aa(lp91
F-1.5
aF-1.5
aF-1.0
aF0.0
aa(lp92
F-1.5
aF-1.5
aF0.0
aF-1.0
aa(lp93
F7.5
aF-1.0
aF0.0
aF-0.5
aa(lp94
F5.622011407753192
aF-0.6503100502751693
aF0.75
aF2.174816590443241
aa(lp95
F2.7788295502479627
aF-0.000791015625
aF1.82170351611413
aF2.9812205503829663
aa(lp96
F3.510437833186395
aF1.1840047079194735
aF1.0427549278798658
aF0.0
aa(lp97
F1.2320831235650656
aF0.0
aF0.0
aF0.0
aa(lp98
F0.0
aF0.0
aF0.0
aF0.0
aa(lp99
F0.0
aF0.0
aF0.0
aF0.0
aa(lp100
F1.0459880950967455
aF0.8057652893997562
aF0.9714071074532511
aF0.9360606222165261
aa(lp101
F0.4490359027389785
aF0.6584075451787396
aF1.0509518562908617
aF-0.0017890238244438917
aa(lp102
F-0.5
aF0.33154288476968596
aF-0.5000344143321551
aF-0.5
aa(lp103
F-0.6012500000000001
aF-0.5
aF-0.009019776015142384
aF-1.0
aa(lp104
F-1.0
aF-1.0
aF-0.88247509765625
aF-1.5
aa(lp105
F-1.0
aF-1.5
aF-1.0
aF-1.2525
aa(lp106
F0.0
aF-1.0
aF0.0
aF5.2749999999999995
aa(lp107
F0.0
aF0.0
aF0.0
aF0.0
aa(lp108
F6.299075972242549
aF3.0096412733464586
aF9.909949394318124
aF6.109235458083515
aa(lp109
F3.233568913622437
aF1.3059143046128343
aF7.765970026679369
aF2.3595332943002
aa(lp110
F4.129734967782493
aF0.0
aF0.0
aF0.0
aa(lp111
F2.7486552059610334
aF0.0
aF0.0
aF0.0
aa(lp112
F0.0
aF0.0
aF0.0
aF0.0
aa(lp113
F0.0
aF0.0
aF0.0
aF0.0
aa(lp114
F1.1273823533298177
aF0.954298215611149
aF1.089893667362845
aF0.9565394742282731
aa(lp115
F0.8306934993178097
aF-0.1256642728221786
aF0.9735080943075936
aF0.43902411574934913
aa(lp116
F0.017594851082133767
aF-0.6376338744902282
aF0.7932652194745398
aF-0.75
aa(lp117
F-0.7532756945800781
aF-0.75
aF-0.22751999231447617
aF-1.725
aa(lp118
F-1.225
aF-1.8375
aF-1.2409765625
aF-1.0
aa(lp119
F0.1512083666762326
aF-1.5
aF-1.0
aF-1.5
aa(lp120
F3.3764639026325525
aF-1.0
aF-1.225
aF1.2757692915893477
aa(lp121
F4.608316733818995
aF4.819896134299461
aF0.9541082690126534
aF5.569315335985236
aa(lp122
F5.516032488587033
aF6.710890547642668
aF5.605797254000114
aF5.70092056178474
aa(lp123
F4.096468038802465
aF6.62894622588397
aF5.277153662152495
aF4.579987920123838
aa(lp124
F2.1798509522277505
aF1.8203493000690014
aF5.672822795404294
aF0.0
aa(lp125
F0.0
aF0.0
aF4.134012666923599
aF0.0
aa(lp126
F0.0
aF0.0
aF0.0
aF0.0
aa(lp127
F0.0
aF0.0
aF0.0
aF0.0
aa(lp128
F1.2123463545802888
aF1.156286162402298
aF1.2196768780104883
aF1.0261681195509837
aa(lp129
F0.672787983210736
aF0.39373241301506334
aF1.2958989216159722
aF-0.018275004727208884
aa(lp130
F-0.5
aF0.7159857810007715
aF-0.125
aF-0.875
aa(lp131
F-0.7259099151611328
aF-0.916201171875
aF0.14133044622705088
aF-1.07625
aa(lp132
F-0.8241464926049344
aF-2.1887499999999998
aF-0.975
aF-1.578125
aa(lp133
F-1.0
aF-1.0
aF-1.6066406249999998
aF2.353842689356796
aa(lp134
F-1.1125
aF1.7973167806693735
aF0.8501847550745381
aF3.3373381468643237
aa(lp135
F4.199641089308277
aF4.284298076674465
aF3.2079986583448044
aF4.630267984898981
aa(lp136
F4.549782546179173
aF5.686434106559754
aF3.5533414339747647
aF4.744273109786445
aa(lp137
F3.8671453592000202
aF4.875998443405237
aF4.701835496687526
aF3.776680345758127
aa(lp138
F1.3270986587259335
aF0.20270817009348277
aF4.5141053784191065
aF1.9183119431974875
aa(lp139
F0.0
aF0.0
aF4.303981235657647
aF0.0
aa(lp140
F0.0
aF0.0
aF0.0
aF0.0
aa(lp141
F0.0
aF0.0
aF0.0
aF0.0
aa(lp142
F1.330340054658536
aF1.2738933935948802
aF1.2470322358558033
aF1.17078911673017
aa(lp143
F0.6319644578214267
aF0.0024228224034266044
aF1.3221646817396349
aF0.48144139374087624
aa(lp144
F1.7831735682933152
aF0.22873472879018908
aF1.1394454906428542
aF-0.0253125
aa(lp145
F0.9016005239438706
aF-0.8766378472900391
aF-0.36352682348958126
aF2.356524642881845
aa(lp146
F2.262718902379383
aF-0.1103172820121599
aF0.0
aF1.2148518097866676
aa(lp147
F2.7099356889307087
aF-0.5465992998193809
aF-0.5
aF2.1041138449138534
aa(lp148
F3.5211698670627642
aF2.415560751205395
aF2.6031803839091587
aF2.8212122615569863
aa(lp149
F3.7406137372171377
aF3.670273733418762
aF3.3248215095390132
aF4.207658687211649
aa(lp150
F3.907389274596851
aF4.620144692187074
aF4.1276807577000145
aF4.0022222455916125
aa(lp151
F0.9772880305386042
aF3.914021350161562
aF3.9636243451259805
aF2.316389257955037
aa(lp152
F0.0
aF1.790663012954592
aF1.4462074586111617
aF0.0
aa(lp153
F0.0
aF3.818873578934567
aF0.0
aF0.0
aa(lp154
F0.0
aF0.0
aF0.0
aF0.0
aa(lp155
F0.0
aF0.0
aF0.0
aF0.0
aa(lp156
F1.464655400545547
aF1.3976952102389033
aF1.4382975170628765
aF1.4084154858372362
aa(lp157
F1.6970385031734463
aF1.3834602527764288
aF1.4605911892844619
aF1.518120569750343
aa(lp158
F1.7917851870964112
aF1.4167787501647082
aF1.634449724991124
aF1.97445547371493
aa(lp159
F2.173996094345008
aF2.056002571692342
aF1.8610005936046021
aF2.204291568308151
aa(lp160
F2.5090113761036945
aF2.2694506480887635
aF2.3107113243151454
aF2.35768130348126
aa(lp161
F2.824312934662279
aF2.4393957827106174
aF2.595313111289203
aF3.014528143511098
aa(lp162
F2.9818524447657007
aF3.0870174904966263
aF3.034918685653862
aF3.1504883988172265
aa(lp163
F2.863703663437426
aF3.650158013445113
aF3.235165106526308
aF3.477842189781171
aa(lp164
F1.9244631580498028
aF4.417182861434337
aF3.462118366329186
aF3.0061257902076446
aa(lp165
F0.0
aF4.219253712102659
aF0.0
aF0.0
aa(lp166
F0.0008849817615871225
aF0.07015035944174661
aF0.0
aF1.0832736234888083
aa(lp167
F1.5750259183193585
aF1.6057153512166125
aF0.04737455349687857
aF0.0
aa(lp168
F0.0
aF0.0
aF0.0
aF0.0
aa(lp169
F0.0
aF0.0
aF0.0
aF0.0
aa(lp170
F1.5014174981044424
aF1.3739338657184827
aF1.4606597408817394
aF1.7324770253288444
aa(lp171
F1.5367015450960781
aF1.588128128077884
aF1.557375480049621
aF1.9519738181975073
aa(lp172
F1.6998104903989864
aF1.5477693356280744
aF1.6663470996325378
aF2.1774804056885784
aa(lp173
F2.308351038978798
aF2.2427153279894605
aF1.994924102522198
aF2.431975739103735
aa(lp174
F2.41927147023705
aF2.376697746362474
aF2.2150845563951194
aF2.5519502243864487
aa(lp175
F2.4635459374562503
aF2.5688120986692686
aF2.6325464504086495
aF2.733490923780794
aa(lp176
F2.864897270526016
aF2.9035372264720736
aF2.832340574996575
aF2.5987804268976467
aa(lp177
F2.4700578466179683
aF2.453646613674333
aF2.9968185815164587
aF2.51497298431071
aa(lp178
F0.0
aF1.5433835721375913
aF2.9108708250802398
aF0.0
aa(lp179
F0.0
aF0.0
aF0.8302727009442366
aF0.0
aa(lp180
F0.0
aF0.0
aF0.0
aF0.23304788448984984
aa(lp181
F0.17250476152201907
aF0.25542721812126057
aF0.07293802460394784
aF0.07043037359077994
aa(lp182
F0.0
aF0.0
aF0.0
aF0.0
aa(lp183
F0.0
aF0.0
aF0.0
aF0.0
aa(lp184
F0.0
aF0.0
aF0.0
aF0.0
aa(lp185
F0.0
aF0.0
aF0.0
aF0.0
aa(lp186
F0.0
aF0.0
aF0.0
aF0.0
aa(lp187
F0.0
aF0.0
aF0.0
aF0.0
aa(lp188
F0.0
aF0.0
aF0.0
aF0.0
aa(lp189
F0.0
aF0.0
aF0.0
aF0.0
aa(lp190
F0.0
aF0.0
aF0.0
aF0.0
aa(lp191
F0.0
aF0.0
aF0.0
aF0.0
aa(lp192
F0.0
aF0.0
aF0.0
aF0.0
aa(lp193
F0.0
aF0.0
aF0.0
aF0.0
aa(lp194
F0.0
aF0.0
aF0.0
aF0.0
aa(lp195
F0.0
aF0.0
aF0.0
aF0.0
aa(lp196
F0.0
aF0.0
aF0.0
aF0.0
aa.