(lp0
(lp1
F0.0
aF0.0
aF0.0
aF0.0
aa(lp2
F0.0
aF0.0
aF0.0
aF0.0
aa(lp3
F0.0
aF0.0
aF0.0
aF0.0
aa(lp4
F0.0
aF0.0
aF0.0
aF0.0
aa(lp5
F0.0
aF0.0
aF0.0
aF0.0
aa(lp6
F0.0
aF0.0
aF0.0
aF0.0
aa(lp7
F0.0
aF0.0
aF0.0
aF0.0
aa(lp8
F0.0
aF0.0
aF0.0
aF0.0
aa(lp9
F0.0
aF0.0
aF0.0
aF0.0
aa(lp10
F0.0
aF0.0
aF0.0
aF0.0
aa(lp11
F0.0
aF0.0
aF0.0
aF0.0
aa(lp12
F0.0
aF0.0
aF0.0
aF0.0
aa(lp13
F0.0
aF0.0
aF0.0
aF0.0
aa(lp14
F0.0
aF0.0
aF0.0
aF0.0
aa(lp15
F0.0
aF0.0
aF0.0
aF0.0
aa(lp16
F0.0
aF0.0
aF0.0
aF0.0
aa(lp17
F1.0991790381213538
aF0.0
aF0.0
aF0.0
aa(lp18
F1.3767223838805007
aF0.0
aF0.0
aF0.0
aa(lp19
F0.0
aF0.0
aF0.6058172692403402
aF0.0
aa(lp20
F0.0
aF0.0
aF0.0
aF0.0
aa(lp21
F0.0
aF0.0
aF0.0
aF0.0
aa(lp22
F0.0
aF0.0
aF0.0
aF0.18815074827711345
aa(lp23
F2.0327915177667353
aF0.0
aF0.0
aF0.0
aa(lp24
F0.0
aF0.0
aF0.0
aF4.3367984293495425
aa(lp25
F0.0
aF0.0
aF0.0
aF8.863004772819643
aa(lp26
F7.028628420719215
aF0.0
aF0.0
aF0.0
aa(lp27
F0.0
aF0.0
aF0.0
aF0.0
aa(lp28
F0.0
aF0.0
aF0.0
aF0.0
aa(lp29
F0.0
aF0.0
aF0.0
aF0.0
aa(lp30
F0.4816027759846463
aF0.0
aF0.0
aF-0.07215290566673645
aa(lp31
F2.5842333420696812
aF0.0
aF0.0
aF0.0
aa(lp32
F-0.17324166356132814
aF-0.663125
aF-0.5
aF4.224302588820266
aa(lp33
F-0.5
aF0.0
aF1.2047875906217207
aF4.686860647852933
aa(lp34
F-0.8990197848451008
aF0.0
aF2.5044534005423436
aF4.988426584536946
aa(lp35
F1.8762959989784909
aF0.0
aF1.7052509212982407
aF5.320696161893934
aa(lp36
F2.2195941411053663
aF0.0
aF3.9262325661778674
aF5.901124573206662
aa(lp37
F0.5001933203769584
aF0.0
aF1.5805864137598717
aF5.927861753679723
aa(lp38
F0.0
aF0.0
aF2.8199519595367795
aF6.608741155574847
aa(lp39
F6.989803236690882
aF5.181572942356482
aF2.036096858699084
aF3.5776022311544184
aa(lp40
F6.0030652102734425
aF7.148535471604612
aF5.263004466028977
aF8.434645156487326
aa(lp41
F7.969938735837196
aF9.999994859517424
aF7.372477401359701
aF8.604278252909356
aa(lp42
F0.0
aF0.0
aF0.0
aF0.0
aa(lp43
F0.0
aF0.0
aF0.0
aF0.0
aa(lp44
F0.0
aF1.4403942931222367
aF0.3666806827775446
aF0.0
aa(lp45
F1.4944711867602964
aF0.0
aF0.5541843153844156
aF-0.4146677641916214
aa(lp46
F-1.3117918677675342
aF3.7373534754739066
aF0.0
aF-0.8494745358723548
aa(lp47
F-1.45
aF-1.5006249999999999
aF-1.30215625
aF1.3512860286190826
aa(lp48
F-1.45
aF-1.0
aF-0.87996875
aF1.9924350388650527
aa(lp49
F-2.63320931238721
aF4.897612195884458
aF0.39691077040192235
aF0.6918837610256623
aa(lp50
F-1.0
aF5.653889842113135
aF-0.5
aF-0.647484375
aa(lp51
F-0.5
aF4.593210601692262
aF-0.5
aF-1.0
aa(lp52
F0.0
aF0.0
aF0.0
aF5.524823942292446
aa(lp53
F4.494802548481057
aF5.004818123633508
aF-0.5
aF7.581470002843318
aa(lp54
F0.0
aF7.804610959816842
aF3.2776284071493174
aF3.9925051143519545
aa(lp55
F7.081833453177985
aF8.999925108973903
aF7.714312308767404
aF8.005971301839015
aa(lp56
F0.0
aF0.0
aF0.0
aF0.0
aa(lp57
F0.0
aF0.0
aF0.0
aF0.0
aa(lp58
F-0.022781250000000003
aF1.0162442805624918
aF0.49444824355824873
aF-0.317056640625
aa(lp59
F-0.05625
aF2.8227557841775344
aF0.09170309551199315
aF-1.3322031249999997
aa(lp60
F-1.7654650849118798
aF2.3380945489013687
aF-1.421468573006599
aF-1.0
aa(lp61
F-2.065581908042107
aF1.9319686999243992
aF-2.5528380264263397
aF-2.4241569426678264
aa(lp62
F-1.95
aF1.8604502900715492
aF-1.95
aF-1.5
aa(lp63
F-2.7335784156040397
aF-2.2140625
aF-2.0688446934030473
aF-1.7114037223727263
aa(lp64
F-1.6042891406906188
aF-0.5893106487147721
aF-2.1525
aF-1.475
aa(lp65
F-1.0
aF-0.5
aF-1.0
aF3.1432939967026696
aa(lp66
F0.0
aF-0.5
aF0.8238019095764026
aF2.8982916055366834
aa(lp67
F5.502308444172936
aF0.0
aF0.0
aF0.0
aa(lp68
F3.0622448756247174
aF3.7556106422423556
aF0.0
aF6.3768792747412935
aa(lp69
F6.083865641772023
aF7.958112910795754
aF6.139302279987676
aF6.952549663156757
aa(lp70
F0.0
aF0.0
aF0.0
aF0.0
aa(lp71
F0.0
aF0.0
aF0.0
aF0.0
aa(lp72
F-0.2707468016000223
aF0.8258280670207281
aF0.03772212927085869
aF-0.3588335740490897
aa(lp73
F-0.9511397278828284
aF-0.8970130843332488
aF-0.8366822671249746
aF-0.8436797376068634
aa(lp74
F-1.56792017353779
aF0.6873093898117771
aF-2.1184648306654705
aF-2.0999642576919753
aa(lp75
F-2.5898288671875003
aF-2.605383525270848
aF0.03502984277600274
aF-3.451557790769764
aa(lp76
F-3.196158012202501
aF-1.4053139474758773
aF-2.516923629796409
aF-2.3941708700467856
aa(lp77
F-2.1842446610338504
aF-2.59375
aF-2.45
aF-2.41875
aa(lp78
F-1.0
aF0.0
aF-1.5
aF-0.722667959730312
aa(lp79
F-1.0
aF-0.9505990452117987
aF-1.5
aF3.449826479494586
aa(lp80
F0.0
aF0.0
aF-1.225
aF3.469956929003842
aa(lp81
F1.9892960920303622
aF0.0
aF0.0
aF4.983563682813716
aa(lp82
F2.5985698177506404
aF5.336019720598457
aF4.058548465498085
aF5.835040993166684
aa(lp83
F5.569475047607613
aF7.032763065109682
aF5.832511660949477
aF6.029884628270569
aa(lp84
F0.0
aF0.0
aF0.0
aF0.0
aa(lp85
F0.0
aF0.0
aF0.0
aF0.0
aa(lp86
F0.8478816691936915
aF0.07855801242565666
aF-0.2129256568220314
aF0.0960327460804231
aa(lp87
F-0.4884686413483224
aF0.11228872924827193
aF0.31150442119872707
aF-0.9840007676793556
aa(lp88
F-1.8845118725406373
aF-2.1254216339105767
aF0.14037661455523204
aF-2.545828776789407
aa(lp89
F-3.2182809300358803
aF-3.2998580397354003
aF-2.2599520033934293
aF-3.443850809922211
aa(lp90
F-3.492773442229814
aF-3.4237732832144943
aF-3.709875
aF-3.7001415045614587
aa(lp91
F-1.95
aF-2.1547162900376113
aF-2.715
aF-1.55458597069671
aa(lp92
F-1.3608528197251974
aF-0.9311076929596768
aF-2.3409191733012427
aF1.666756147005734
aa(lp93
F-0.75
aF-0.07891795973031179
aF-1.0
aF2.8479115551791616
aa(lp94
F0.0
aF0.0
aF0.0
aF4.820096048741593
aa(lp95
F0.0
aF2.655303775291993
aF0.0
aF4.826920233370448
aa(lp96
F3.591464635368866
aF3.901565543281651
aF4.177780421573226
aF5.437290812451199
aa(lp97
F5.032444036736649
aF6.349790397432074
aF5.541345594659626
aF5.304332521078852
aa(lp98
F0.0
aF0.0
aF0.0
aF0.0
aa(lp99
F0.0
aF0.0
aF0.0
aF0.0
aa(lp100
F1.0454618299329352
aF0.3097541781005193
aF0.4273565981926126
aF0.37208070308367636
aa(lp101
F0.757580417790251
aF0.0021727245091317307
aF-0.6534106218722558
aF-2.19314801769794
aa(lp102
F0.2478539110661326
aF-2.020854887809797
aF-2.0133527528822435
aF-3.1671875000000003
aa(lp103
F-0.9322217247081926
aF-3.901564441508002
aF-4.182331498280169
aF-3.6693749999999996
aa(lp104
F-3.1328059668367043
aF-3.344890228181071
aF-2.4743192840629407
aF-3.5759008675458146
aa(lp105
F-2.339505297365206
aF-2.5483248582273497
aF-2.925
aF-1.564379466042845
aa(lp106
F-1.0
aF-1.225
aF-1.5
aF0.10826375511198383
aa(lp107
F-0.5
aF-1.225
aF-0.5
aF0.6827412073992474
aa(lp108
F0.0
aF3.799974561537918
aF0.0
aF0.0
aa(lp109
F0.0
aF0.0
aF2.0646200004123463
aF4.847798673321451
aa(lp110
F3.1584714637734272
aF5.530532319734825
aF1.526061918406191
aF3.1891701215773436
aa(lp111
F4.296553311455829
aF5.630278206134188
aF4.597989516807022
aF4.495598521276307
aa(lp112
F0.0
aF0.0
aF0.0
aF0.0
aa(lp113
F0.0
aF0.0
aF0.0
aF0.0
aa(lp114
F1.2810197434959838
aF0.2860396636443203
aF0.5759769215229084
aF0.6366261739300436
aa(lp115
F1.1605687948728673
aF0.01940209543966792
aF0.4463148040466024
aF-0.18406217920114776
aa(lp116
F0.6490886226832443
aF-1.0881070333914304
aF-1.1518683503776437
aF-0.981052899491221
aa(lp117
F0.6060240903957744
aF-3.4019398900804285
aF-0.979864020705908
aF-1.982348426490317
aa(lp118
F0.7565504628143462
aF-2.7
aF-1.95
aF-1.975
aa(lp119
F0.6880258955940411
aF-1.0
aF-1.630848173182741
aF-1.0
aa(lp120
F-0.7330728173466957
aF-1.0
aF-1.225
aF-0.9529301479248047
aa(lp121
F-0.5
aF-0.5
aF-1.2173827678060132
aF1.3769970381868875
aa(lp122
F2.3656374936302997
aF0.0
aF-0.5
aF0.0
aa(lp123
F3.1231154590151977
aF4.475761428144851
aF0.0
aF1.733149123842678
aa(lp124
F3.6077976022279845
aF3.4570201240939054
aF3.472952417552153
aF0.0
aa(lp125
F3.862363085661489
aF4.887576714689901
aF3.398963227485116
aF3.8281651114272552
aa(lp126
F0.0
aF0.0
aF0.0
aF0.0
aa(lp127
F0.0
aF0.0
aF0.0
aF0.0
aa(lp128
F1.34418611053547
aF0.8489366140882593
aF1.1804733700725056
aF0.6844205130537676
aa(lp129
F1.5254407895191793
aF0.9570688899417312
aF0.9599881560041403
aF0.6381173106912423
aa(lp130
F0.48671357335188503
aF0.328376462873148
aF1.2562893198997525
aF-0.04050759792501313
aa(lp131
F1.6581281190509176
aF-1.0
aF0.559058861816038
aF0.6340271257176336
aa(lp132
F1.87166202551149
aF-1.0
aF-0.975
aF0.43956151765865215
aa(lp133
F1.989453339533434
aF-1.25
aF-0.975
aF-0.75
aa(lp134
F2.031446455022693
aF0.0
aF-0.5
aF-0.5
aa(lp135
F-0.5
aF-0.5
aF0.0
aF3.0264164440906205
aa(lp136
F2.1077680758306854
aF0.0
aF1.322425862419232
aF3.326381383784192
aa(lp137
F3.0479440052498985
aF3.245966620877777
aF3.288469164945993
aF3.3438253302471077
aa(lp138
F3.2770705608410484
aF3.505045286957719
aF3.3404428755971187
aF3.6188591916003623
aa(lp139
F3.3858953971129724
aF4.204117174832095
aF3.5941444115624517
aF3.741499842170185
aa(lp140
F0.0
aF0.0
aF0.0
aF0.0
aa(lp141
F0.0
aF0.0
aF0.0
aF0.0
aa(lp142
F1.1112736495092372
aF9.530353154907883e-06
aF0.0
aF1.5090557190005376
aa(lp143
F1.4302972720574374
aF1.2362002572668285
aF0.8570213402126845
aF1.5309657184234033
aa(lp144
F1.514971595512404
aF0.7717639738944888
aF1.2844655505613254
aF1.8532362971894083
aa(lp145
F1.7894272210500826
aF0.4323660645059468
aF1.4990753074756642
aF1.306932446160755
aa(lp146
F1.2888894136277531
aF0.6375266295807259
aF1.2987137107351652
aF2.064701050867604
aa(lp147
F2.1845154066124888
aF-0.32926353752471027
aF1.9255860020571636
aF1.296698769723071
aa(lp148
F2.320453978298459
aF1.81210002824845
aF0.6907801978491918
aF1.459841535887946
aa(lp149
F1.1194797925637892
aF-0.5
aF1.702548529982138
aF2.784091726669309
aa(lp150
F2.701623553221169
aF3.1942374214897913
aF2.671667692602586
aF2.4348446436492184
aa(lp151
F2.8232846409342223
aF3.1774321472213876
aF2.714882861810774
aF3.0157767059609526
aa(lp152
F2.963100085557633
aF3.434615324917192
aF2.975165830999929
aF3.3877000656096135
aa(lp153
F3.0154848309347564
aF3.718242683681562
aF3.251240751936592
aF3.136814590471031
aa(lp154
F0.0
aF0.0
aF0.0
aF0.0
aa(lp155
F0.0
aF0.0
aF0.0
aF0.0
aa(lp156
F1.297931532735141
aF1.0985123555004128
aF1.290807064862193
aF1.297073658742298
aa(lp157
F1.343889672123579
aF1.5167025095798066
aF1.2870982195690401
aF1.3452625472235922
aa(lp158
F1.5954704332932899
aF1.3994687359279383
aF1.3619277002834838
aF1.7034709489413409
aa(lp159
F1.7152440771918132
aF0.8696980886323638
aF1.2238953290152006
aF2.0278213747603777
aa(lp160
F1.8210364899223235
aF1.4708134654446312
aF1.768832388877362
aF2.192419370916487
aa(lp161
F1.9569115469999836
aF1.8769114603787167
aF2.002248016892992
aF2.360352688777385
aa(lp162
F2.179638268105933
aF2.0143850603190314
aF2.1107687501741434
aF2.424546014794524
aa(lp163
F2.296465564565948
aF2.47099327464711
aF2.278322033458811
aF2.6660392672582924
aa(lp164
F2.393402601766108
aF2.9146952916982762
aF2.3869101111690254
aF2.5218648057859805
aa(lp165
F2.4422413763673267
aF2.9577488401747227
aF2.6667986760655125
aF2.684855395689911
aa(lp166
F2.520718589993478
aF3.0604510645665
aF2.9050910084696238
aF1.4963619937667045
aa(lp167
F2.745172481930669
aF3.282212398170805
aF2.952127570588145
aF2.8017751027986884
aa(lp168
F0.0
aF0.0
aF0.0
aF0.0
aa(lp169
F0.0
aF0.0
aF0.0
aF0.0
aa(lp170
F1.3323096481134693
aF1.2331843749071587
aF1.3625315118979024
aF1.4381453197300307
aa(lp171
F1.3302929562641332
aF1.150551989052619
aF1.355304773983537
aF1.5750817086419333
aa(lp172
F1.5503214038684578
aF1.5337098637402153
aF1.48018861928677
aF1.58909714669131
aa(lp173
F1.6383572041996537
aF1.516678029485075
aF1.6019218130890243
aF1.8316876865894387
aa(lp174
F1.8043339729532868
aF2.0614961630358053
aF1.6867851572607901
aF1.77715013240539
aa(lp175
F1.8967646982189577
aF1.9280895370216216
aF1.8557132669490803
aF2.1722220567102806
aa(lp176
F1.9285236710855174
aF1.2436989105287075
aF1.9670392464138675
aF2.302962436095455
aa(lp177
F1.720134866527475
aF2.5811013049119693
aF2.0684964717901955
aF2.264760244350581
aa(lp178
F1.7575076543452297
aF2.1396507900961765
aF2.212993045268779
aF2.5289173543257437
aa(lp179
F1.747445353665807
aF1.7189352647713312
aF1.5848944298668877
aF2.4960218429863192
aa(lp180
F2.3835216286132495
aF2.8356616986493233
aF2.1489281225686576
aF2.3454145050598623
aa(lp181
F2.52292167038164
aF2.988967022066194
aF2.349459694280032
aF1.9989079957281897
aa(lp182
F0.0
aF0.0
aF0.0
aF0.0
aa(lp183
F0.0
aF0.0
aF0.0
aF0.0
aa(lp184
F0.0
aF0.0
aF0.0
aF0.0
aa(lp185
F0.0
aF0.0
aF0.0
aF0.0
aa(lp186
F0.0
aF0.0
aF0.0
aF0.0
aa(lp187
F0.0
aF0.0
aF0.0
aF0.0
aa(lp188
F0.0
aF0.0
aF0.0
aF0.0
aa(lp189
F0.0
aF0.0
aF0.0
aF0.0
aa(lp190
F0.0
aF0.0
aF0.0
aF0.0
aa(lp191
F0.0
aF0.0
aF0.0
aF0.0
aa(lp192
F0.0
aF0.0
aF0.0
aF0.0
aa(lp193
F0.0
aF0.0
aF0.0
aF0.0
aa(lp194
F0.0
aF0.0
aF0.0
aF0.0
aa(lp195
F0.0
aF0.0
aF0.0
aF0.0
aa(lp196
F0.0
aF0.0
aF0.0
aF0.0
aa.