(lp0
(lp1
F0.0
aF0.0
aF0.0
aF0.0
aa(lp2
F0.0
aF0.0
aF0.0
aF0.0
aa(lp3
F0.0
aF0.0
aF0.0
aF0.0
aa(lp4
F0.0
aF0.0
aF0.0
aF0.0
aa(lp5
F0.0
aF0.0
aF0.0
aF0.0
aa(lp6
F0.0
aF0.0
aF0.0
aF0.0
aa(lp7
F0.0
aF0.0
aF0.0
aF0.0
aa(lp8
F0.0
aF0.0
aF0.0
aF0.0
aa(lp9
F0.0
aF0.0
aF0.0
aF0.0
aa(lp10
F0.0
aF0.0
aF0.0
aF0.0
aa(lp11
F0.0
aF0.0
aF0.0
aF0.0
aa(lp12
F0.0
aF0.0
aF0.0
aF0.0
aa(lp13
F0.0
aF0.0
aF0.0
aF0.0
aa(lp14
F0.0
aF0.0
aF0.0
aF0.0
aa(lp15
F0.0
aF0.0
aF0.0
aF0.0
aa(lp16
F0.0
aF0.0
aF0.0
aF0.0
aa(lp17
F0.0
aF0.0
aF0.0
aF0.0
aa(lp18
F4.146647303705505
aF0.0
aF0.0
aF0.0
aa(lp19
F0.0
aF0.0
aF2.738413589667738
aF0.0
aa(lp20
F0.0
aF0.0
aF0.22867020547433006
aF4.973015081490241
aa(lp21
F5.823390771267457
aF1.2112680405598764
aF2.1162737597561865
aF0.0
aa(lp22
F0.0
aF0.0
aF2.213434814743723
aF4.683642055999688
aa(lp23
F6.388421930392834
aF3.0565594349950764
aF0.0
aF0.0
aa(lp24
F6.879778698916956
aF0.0
aF0.0
aF0.0
aa(lp25
F7.507627432784458
aF0.0
aF0.0
aF0.0
aa(lp26
F0.0
aF0.0
aF5.578335038836082
aF0.0
aa(lp27
F0.0
aF0.0
aF0.0
aF0.0
aa(lp28
F0.0
aF0.0
aF0.0
aF0.0
aa(lp29
F0.0
aF0.0
aF0.0
aF0.0
aa(lp30
F0.27041648308191263
aF0.0
aF0.0
aF0.0
aa(lp31
F3.097956731657412
aF0.0
aF0.7623894926651127
aF1.60166181898399
aa(lp32
F-0.5
aF2.7678438286292684
aF1.2306393077282274
aF4.428540983212724
aa(lp33
F2.3061154919172315
aF1.9441277289599381
aF2.565576913380929
aF4.778070060006495
aa(lp34
F2.8951951699509353
aF4.811104221228011
aF4.433906188809783
aF5.455318512609207
aa(lp35
F2.8954566602776763
aF0.0
aF2.917256504640844
aF5.18083083944422
aa(lp36
F4.304988527439926
aF0.9500997210834986
aF2.978473643798355
aF6.42125519784021
aa(lp37
F5.700678415154844
aF2.284469252354586
aF5.788564880900739
aF7.222099474562596
aa(lp38
F3.8106150503523706
aF4.616932290426708
aF4.921874851637048
aF7.514858157332484
aa(lp39
F4.981657771919791
aF5.724732548922834
aF6.938254560363873
aF6.756533311282528
aa(lp40
F7.808888762922761
aF6.197786959422512
aF6.995562793667606
aF8.386942243401947
aa(lp41
F8.080110442449243
aF9.997164352763198
aF7.748671350162109
aF8.914634665151109
aa(lp42
F0.0
aF0.0
aF0.0
aF0.0
aa(lp43
F0.0
aF0.0
aF0.0
aF0.0
aa(lp44
F0.6009255179598059
aF0.0
aF0.0
aF3.113464968789097
aa(lp45
F1.7629556287637986
aF3.5801859064117814
aF1.0793780506089743
aF0.219451396387768
aa(lp46
F-0.25
aF4.024952754762719
aF1.3310078275920605
aF0.5697911762886929
aa(lp47
F-1.0
aF4.5920164168538875
aF-0.25
aF0.7892327053931539
aa(lp48
F-0.9293790888811727
aF0.0
aF-0.5
aF4.404701274421411
aa(lp49
F1.9151912912168467
aF5.712550406956401
aF-0.75
aF1.8034606600761867
aa(lp50
F-1.5
aF6.444819835303868
aF2.9717842695655983
aF2.048413646493744
aa(lp51
F0.0
aF6.6228023468135575
aF-0.18015271580469838
aF-0.28033872913818353
aa(lp52
F0.0
aF6.950920223800781
aF1.9050723012821564
aF2.683814226984911
aa(lp53
F4.974971519626626
aF0.0
aF2.7582087155066732
aF0.0
aa(lp54
F6.850973258552962
aF8.42905610475461
aF5.226527968737211
aF5.917757908028398
aa(lp55
F7.012584562000081
aF8.924010923901676
aF7.565308187138675
aF7.773492656365818
aa(lp56
F0.0
aF0.0
aF0.0
aF0.0
aa(lp57
F0.0
aF0.0
aF0.0
aF0.0
aa(lp58
F0.7193564309816028
aF0.0
aF0.31465618890413705
aF0.0
aa(lp59
F0.05641538992564562
aF-0.15461450391967002
aF-0.09882624850329824
aF-0.38673209827334587
aa(lp60
F-0.14146969247040198
aF1.466856033783751
aF0.06270914571972386
aF-1.1337762549476098
aa(lp61
F-1.6942248871370942
aF-2.038735703894912
aF-0.12433013671136839
aF-1.823619461907323
aa(lp62
F-1.7875
aF-0.931893223078339
aF-1.8193150338044566
aF0.9907212584812362
aa(lp63
F-1.75
aF4.286868807700909
aF-0.27421260049656326
aF-1.0
aa(lp64
F-1.0
aF4.421051871345416
aF-1.0
aF-0.09485678159517552
aa(lp65
F2.9474138032891783
aF-0.5
aF-1.0
aF-0.5
aa(lp66
F2.765519415305774
aF-0.09002056243419643
aF-1.225
aF0.0
aa(lp67
F0.0
aF6.004797172411579
aF0.14724136898844553
aF0.0
aa(lp68
F4.048240127104564
aF0.0
aF0.0
aF6.909143360718367
aa(lp69
F7.351649040561776
aF7.925203829641456
aF6.773720900171389
aF7.005787716002837
aa(lp70
F0.0
aF0.0
aF0.0
aF0.0
aa(lp71
F0.0
aF0.0
aF0.0
aF0.0
aa(lp72
F-0.05138610347906128
aF0.9908473758821716
aF0.7534848118885975
aF1.0895012356158456
aa(lp73
F-0.00562793512575166
aF0.11623872204157609
aF-0.5757963048956405
aF-0.6071407694919355
aa(lp74
F-1.1273633718562948
aF-0.8178666333479829
aF0.13021520312916735
aF-2.6142146327746194
aa(lp75
F-3.1100837322721455
aF-1.2360566694320718
aF-2.611410297436927
aF-2.45
aa(lp76
F-3.4928543661360725
aF-0.7872044550254771
aF-3.0555625
aF-3.3
aa(lp77
F-2.029334676462078
aF0.4654390257786024
aF-2.7236875
aF-2.385068694714782
aa(lp78
F-1.8375
aF-1.1438519039162336
aF-2.25
aF-1.0
aa(lp79
F-0.1285654230827712
aF-0.5
aF-1.5
aF-0.06032491134684742
aa(lp80
F0.0
aF0.0
aF0.0
aF5.004026099598612
aa(lp81
F0.0
aF0.0
aF-0.5
aF5.795960702051147
aa(lp82
F4.187916738764238
aF4.693504818550759
aF3.470911457938071
aF5.870967213341398
aa(lp83
F5.3761520184636105
aF7.076355341569377
aF5.694014471932949
aF5.7016089283637506
aa(lp84
F0.0
aF0.0
aF0.0
aF0.0
aa(lp85
F0.0
aF0.0
aF0.0
aF0.0
aa(lp86
F0.49293380320072683
aF0.6285891847816683
aF0.633141241692862
aF0.5622789292831469
aa(lp87
F-0.5561967527045707
aF0.28796881874343155
aF0.3133978743706119
aF-0.4069577302467117
aa(lp88
F-2.362915953701494
aF-2.17726240234375
aF0.7627433263380368
aF-4.527970532199133
aa(lp89
F-3.9714139617238073
aF-3.584988613382646
aF-3.149658717053164
aF-2.841782990832442
aa(lp90
F-4.0780745217504215
aF-4.453977435902788
aF-3.9485819493639145
aF-2.1580817234073657
aa(lp91
F-3.0088942811509396
aF-3.075
aF-3.049993545559082
aF-2.4052336050484273
aa(lp92
F-0.21835593999587377
aF-1.5
aF-2.774847983025312
aF1.0105095851687782
aa(lp93
F-1.0
aF-1.0
aF-1.0
aF2.8401111708110283
aa(lp94
F-0.5
aF0.0
aF0.7639020685701099
aF4.6795298344967335
aa(lp95
F4.552014778975813
aF0.0
aF0.5981007092007147
aF2.9243176982603893
aa(lp96
F3.6746768797441116
aF4.752132232063281
aF4.44010169302725
aF5.5377789312741985
aa(lp97
F4.902052921082118
aF6.218768541536095
aF4.7809058644310145
aF4.887382022365919
aa(lp98
F0.0
aF0.0
aF0.0
aF0.0
aa(lp99
F0.0
aF0.0
aF0.0
aF0.0
aa(lp100
F0.20932843656282107
aF0.555244634160031
aF0.4963394225959875
aF0.08552502507260207
aa(lp101
F0.2632109815478022
aF-1.346878199320767
aF-0.36853028478625927
aF-1.752337530241035
aa(lp102
F-1.6519822041911327
aF-1.3743799406845247
aF0.8357485182907082
aF-3.2166493946393095
aa(lp103
F-3.2748775874489144
aF-3.376875
aF0.1751560265670784
aF-4.1774092128587235
aa(lp104
F-1.8701724163096989
aF-4.387606745380589
aF-3.477202998093832
aF-3.5025
aa(lp105
F-2.675
aF-1.725
aF-2.8774999999999995
aF-1.284780795986385
aa(lp106
F-0.5033941527216972
aF0.0
aF-1.6963856170154434
aF-0.5
aa(lp107
F3.1129827580236213
aF-1.0
aF-0.5
aF-0.5
aa(lp108
F1.757904160786332
aF-0.5
aF-0.5
aF2.9742598096081525
aa(lp109
F2.867810601711019
aF1.9766625965708888
aF2.022787458777284
aF4.665183801412271
aa(lp110
F3.1461441935524004
aF5.235396586527126
aF4.2422575194487555
aF4.6696057180929476
aa(lp111
F4.070027441003067
aF5.30631290880965
aF4.4292014182615045
aF4.7605692062436855
aa(lp112
F0.0
aF0.0
aF0.0
aF0.0
aa(lp113
F0.0
aF0.0
aF0.0
aF0.0
aa(lp114
F1.0980597833776538
aF0.395917332793867
aF0.3789186280002254
aF-0.05745492795691276
aa(lp115
F0.9635121382133083
aF-0.3683285782493272
aF-0.5938302774857827
aF0.5959798883803127
aa(lp116
F0.6190461437185858
aF-1.4759359145561595
aF-1.9733204430179152
aF-2.007396093097461
aa(lp117
F-2.14735758320616
aF-1.680078125
aF-1.1677852941812479
aF-2.4133601095304646
aa(lp118
F-2.7805881610182333
aF-2.0
aF-2.8525
aF0.5843549080854809
aa(lp119
F-2.30625
aF-2.3375000000000004
aF-1.95
aF1.7401747410583948
aa(lp120
F-0.7475017878815007
aF0.0
aF0.0
aF1.1207170629352476
aa(lp121
F1.627568112901755
aF0.792322832617216
aF-0.5839190201982012
aF3.3519208126237734
aa(lp122
F0.0
aF0.0
aF-0.478221686729673
aF3.884335195068231
aa(lp123
F2.1145926833415167
aF4.463473133922358
aF2.0805932807247633
aF2.107323136014882
aa(lp124
F3.6366079801685256
aF4.882557685998649
aF4.023755975755422
aF3.751030544039738
aa(lp125
F4.044208018313652
aF4.96208821788865
aF4.105554980891498
aF4.149039614257243
aa(lp126
F0.0
aF0.0
aF0.0
aF0.0
aa(lp127
F0.0
aF0.0
aF0.0
aF0.0
aa(lp128
F1.359316230714136
aF0.5797175390197707
aF0.8868597386097421
aF0.5203166478208474
aa(lp129
F1.101060720018508
aF0.16886261930134872
aF0.7874892075825921
aF0.8082731208439313
aa(lp130
F1.5965573185471786
aF-0.9142465369953954
aF1.251946083775519
aF-0.6021381441595184
aa(lp131
F1.8240163598820693
aF-1.7848978040566665
aF-0.5636706642764523
aF-0.3111771535235146
aa(lp132
F-0.265801314604866
aF-2.36875
aF-1.0
aF0.7000337495366633
aa(lp133
F2.1320833673415063
aF-2.0428995180567053
aF-0.5
aF-0.75
aa(lp134
F2.467531040509882
aF-0.5719892954754674
aF0.06140611854685951
aF0.9752926832413296
aa(lp135
F2.618270163446014
aF-0.5
aF-0.5
aF-0.5
aa(lp136
F2.2647245867384895
aF0.0
aF-0.25
aF3.800169609461997
aa(lp137
F3.291192653662618
aF4.190510694864161
aF2.6121683738974175
aF2.6450659524877893
aa(lp138
F3.4892139702400113
aF4.557520271554964
aF3.8108964512108967
aF3.9822861847642033
aa(lp139
F3.609218858431092
aF4.508199917513297
aF3.7305877002111423
aF3.6933624673670913
aa(lp140
F0.0
aF0.0
aF0.0
aF0.0
aa(lp141
F0.0
aF0.0
aF0.0
aF0.0
aa(lp142
F0.7761211577044522
aF0.0
aF0.45768532872395706
aF1.34731775372643
aa(lp143
F1.3414672936705219
aF0.6789372425581078
aF1.246162693523146
aF1.6991662632214695
aa(lp144
F1.0214941074423785
aF0.9734913438111399
aF1.5090075710593394
aF1.8566102474552704
aa(lp145
F1.7215873180174668
aF0.11187965239359426
aF0.7328106044726731
aF1.9357026317474626
aa(lp146
F1.4415623436727585
aF0.035954742683233065
aF0.49632508298687195
aF2.3278994258842918
aa(lp147
F1.8052974470618144
aF0.22836112157331973
aF1.2795285275770745
aF2.6906344593599583
aa(lp148
F1.9361034213850128
aF1.2478957181396395
aF1.9718586903737552
aF2.8465210659937163
aa(lp149
F2.157501145674529
aF1.593677243268265
aF2.4489469141627724
aF3.059438511804971
aa(lp150
F2.8413598988362168
aF3.1371845465852406
aF3.0869170122797343
aF3.358324476185109
aa(lp151
F2.81727054037347
aF3.6296110205810894
aF3.0529725546955557
aF3.2695661912439973
aa(lp152
F3.099110647301755
aF3.900688675772715
aF3.1749272345865345
aF3.2782110394248094
aa(lp153
F3.198209857557293
aF3.5833277030901787
aF3.1507689640585967
aF3.0915573592574312
aa(lp154
F0.0
aF0.0
aF0.0
aF0.0
aa(lp155
F0.0
aF0.0
aF0.0
aF0.0
aa(lp156
F1.5196358453012486
aF1.2063580467600046
aF1.5448023282044998
aF1.6413264080120065
aa(lp157
F1.5264720439240143
aF1.2986954023450317
aF1.2664076606883232
aF1.866069332428693
aa(lp158
F1.6839576375974195
aF1.4885516474519753
aF1.7846962944872544
aF2.060375846463832
aa(lp159
F0.9563893474989675
aF1.3570471765776677
aF1.7493643372404732
aF2.1260136363841573
aa(lp160
F2.025382733382325
aF2.0416937868708045
aF1.9946351771193183
aF2.2414985320292615
aa(lp161
F2.149138479558388
aF2.086773107279871
aF2.0094922902317696
aF2.3897618588036247
aa(lp162
F2.1382002941373512
aF2.5820825186474554
aF2.359278929612143
aF2.446613901691104
aa(lp163
F2.3578817406021413
aF2.604028053500319
aF2.380136568734671
aF2.7487746437977325
aa(lp164
F2.4421016416866443
aF3.1337652533420925
aF2.590624767192976
aF2.658482060211795
aa(lp165
F2.325397760139163
aF2.4618136135927937
aF2.6325268532889208
aF2.932111557262175
aa(lp166
F2.492864693431061
aF3.379279405437279
aF3.011847744539525
aF2.8455190668162196
aa(lp167
F2.560250714225873
aF3.0310052284917095
aF3.0405624295364895
aF2.814930376689011
aa(lp168
F0.0
aF0.0
aF0.0
aF0.0
aa(lp169
F0.0
aF0.0
aF0.0
aF0.0
aa(lp170
F1.2971693691941348
aF1.4550383171170216
aF1.2976270892485071
aF1.3956716376602665
aa(lp171
F1.3149794294013324
aF1.3125761178455235
aF1.2600022509706543
aF1.658192367988979
aa(lp172
F1.6185056963619509
aF1.315928179211678
aF1.524466395714318
aF1.8075067355927574
aa(lp173
F1.6744593652135704
aF1.978465218508487
aF1.6425469736644684
aF1.9204276227449706
aa(lp174
F1.8555011762431715
aF1.9761720915347691
aF1.7936742499990668
aF2.0640050237654606
aa(lp175
F1.5994421139012875
aF2.435975930150905
aF1.9579650766568533
aF1.7282221492076584
aa(lp176
F0.0
aF2.3874570130290733
aF1.4769994767985715
aF0.0
aa(lp177
F0.0
aF2.5834429708064106
aF0.0
aF1.046968544050013
aa(lp178
F1.0014757021187268
aF2.640875689492848
aF0.0014940981248371492
aF1.3907077395972216
aa(lp179
F1.1328836976551473
aF0.0
aF0.0
aF2.472708554133737
aa(lp180
F0.30366045023183835
aF0.0
aF1.4621231730976887e-05
aF2.801891128183468
aa(lp181
F1.080303745525507
aF2.9784488526968724
aF2.203719415166431
aF2.3904368246263985
aa(lp182
F0.0
aF0.0
aF0.0
aF0.0
aa(lp183
F0.0
aF0.0
aF0.0
aF0.0
aa(lp184
F0.0
aF0.0
aF0.0
aF0.0
aa(lp185
F0.0
aF0.0
aF0.0
aF0.0
aa(lp186
F0.0
aF0.0
aF0.0
aF0.0
aa(lp187
F0.0
aF0.0
aF0.0
aF0.0
aa(lp188
F0.0
aF0.0
aF0.0
aF0.0
aa(lp189
F0.0
aF0.0
aF0.0
aF0.0
aa(lp190
F0.0
aF0.0
aF0.0
aF0.0
aa(lp191
F0.0
aF0.0
aF0.0
aF0.0
aa(lp192
F0.0
aF0.0
aF0.0
aF0.0
aa(lp193
F0.0
aF0.0
aF0.0
aF0.0
aa(lp194
F0.0
aF0.0
aF0.0
aF0.0
aa(lp195
F0.0
aF0.0
aF0.0
aF0.0
aa(lp196
F0.0
aF0.0
aF0.0
aF0.0
aa.