(lp0
(lp1
F0.0
aF0.0
aF0.0
aF0.0
aa(lp2
F0.0
aF0.0
aF0.0
aF0.0
aa(lp3
F0.0
aF0.0
aF0.0
aF0.0
aa(lp4
F0.0
aF0.0
aF0.0
aF0.0
aa(lp5
F0.0
aF0.0
aF0.0
aF0.0
aa(lp6
F0.0
aF0.0
aF0.0
aF0.0
aa(lp7
F0.0
aF0.0
aF0.0
aF0.0
aa(lp8
F0.0
aF0.0
aF0.0
aF0.0
aa(lp9
F0.0
aF0.0
aF0.0
aF0.0
aa(lp10
F0.0
aF0.0
aF0.0
aF0.0
aa(lp11
F0.0
aF0.0
aF0.0
aF0.0
aa(lp12
F0.0
aF0.0
aF0.0
aF0.0
aa(lp13
F0.0
aF0.0
aF0.0
aF0.0
aa(lp14
F0.0
aF0.0
aF0.0
aF0.0
aa(lp15
F0.0
aF0.0
aF0.0
aF0.0
aa(lp16
F0.0
aF0.0
aF0.0
aF0.0
aa(lp17
F0.0
aF0.0
aF0.0
aF2.1098773063581002
aa(lp18
F2.420101316829928
aF0.0
aF1.0460968557755297
aF1.1755517832827418
aa(lp19
F0.46256317499243343
aF1.4297471837889506
aF1.4371705951095648
aF3.895400817894247
aa(lp20
F2.849188551657453
aF2.78006887621357
aF1.0194758362027085
aF4.5950217153257125
aa(lp21
F2.310440796795595
aF3.8990928059523884
aF3.204989779516195
aF5.085198334852464
aa(lp22
F0.0
aF3.4551735848798595
aF2.906220155257791
aF5.20351439967814
aa(lp23
F2.8875556259453314
aF4.300539307804531
aF3.0811251447470642
aF6.0785086351884
aa(lp24
F3.357622580144454
aF3.483624894079335
aF3.5373906698017654
aF5.446935367408445
aa(lp25
F6.530382313018926
aF3.755543507754796
aF4.384858313642446
aF4.440282325255698
aa(lp26
F5.401199960951154
aF4.880795161270903
aF0.0
aF4.346675410592317
aa(lp27
F5.4217940338224455
aF4.210623412517865
aF2.983544488909142
aF3.4434304210190056
aa(lp28
F0.0
aF0.0
aF0.0
aF0.0
aa(lp29
F0.0
aF0.0
aF0.0
aF0.0
aa(lp30
F1.2840586111894223
aF0.0
aF0.0
aF0.0
aa(lp31
F0.0
aF0.2704979296282202
aF0.5893643426736266
aF3.1586856254837676
aa(lp32
F0.0
aF1.4023603657442112
aF1.6927269218127794
aF3.4391828048158013
aa(lp33
F1.6468476684440352
aF3.8587632832744667
aF1.4354957067284335
aF0.0
aa(lp34
F0.9123634207738609
aF4.178645003049093
aF1.330842229141684
aF0.0
aa(lp35
F0.7649711172784104
aF1.333799874639203
aF2.9268893999913512
aF4.572912367474416
aa(lp36
F0.7935662632445795
aF1.966585348669055
aF3.0089807195307214
aF5.328544956661203
aa(lp37
F-0.5
aF1.6132714234871535
aF0.0
aF6.018230102370769
aa(lp38
F0.9174686131433107
aF4.8452543238014165
aF2.3052975385381074
aF7.190616824904898
aa(lp39
F9.539143183434723
aF5.298599560039236
aF4.842995326872189
aF4.911125733537901
aa(lp40
F6.086693032514374
aF4.439082026732523
aF7.843472535507486
aF5.125424913328265
aa(lp41
F6.357719191203442
aF4.278373131976483
aF4.608537277659134
aF4.635113717406397
aa(lp42
F0.0
aF0.0
aF0.0
aF0.0
aa(lp43
F0.0
aF0.0
aF0.0
aF0.0
aa(lp44
F0.32838268076156224
aF0.0
aF0.0
aF2.1273830847629847
aa(lp45
F0.8298510814923112
aF2.559275229174424
aF1.2933734170634066
aF1.825299000385892
aa(lp46
F-0.14061828973455504
aF0.08089612774686328
aF2.2562494844777095
aF0.6563597129263741
aa(lp47
F-1.3125
aF2.7914780672742188
aF-0.23883932473276281
aF0.07409719176994911
aa(lp48
F-1.8375000000000001
aF3.3799038928829317
aF-0.2528699581495565
aF-0.03700910613651581
aa(lp49
F-1.0
aF4.25407859736074
aF-0.5
aF-0.5
aa(lp50
F-1.0
aF2.502306894129683
aF-0.5
aF-0.6253858505859375
aa(lp51
F-0.5
aF5.713617398021957
aF-0.5
aF-0.5
aa(lp52
F3.3964334433852295
aF0.0
aF0.0
aF0.0
aa(lp53
F0.0
aF0.0
aF0.0
aF0.0
aa(lp54
F5.430434611569908
aF5.362747508216421
aF9.188199325556093
aF5.245461362560426
aa(lp55
F5.278164623465222
aF4.977368886476059
aF7.313309075932716
aF5.095705012943714
aa(lp56
F0.0
aF0.0
aF0.0
aF0.0
aa(lp57
F0.0
aF0.0
aF0.0
aF0.0
aa(lp58
F0.6904902727986327
aF1.6337750183115762
aF0.352132104570481
aF-0.18400397607381447
aa(lp59
F0.04128837522489502
aF1.1843869590434453
aF1.464951842941943
aF0.473567307689326
aa(lp60
F-1.0889318048620604
aF0.5545948185330147
aF1.5745730011943897
aF-2.8624972831729965
aa(lp61
F-2.075
aF1.7894026691143456
aF0.11875005231225133
aF-1.8375
aa(lp62
F-2.848520618876816
aF1.4041441408721298
aF-2.299521109209088
aF-2.161269889456168
aa(lp63
F-2.7
aF1.418360963680792
aF-1.0
aF-1.2813287420598325
aa(lp64
F-1.6132623403145312
aF1.7151475262749973
aF-1.0
aF-0.7403124775326866
aa(lp65
F0.0
aF0.0
aF0.0
aF1.864708740368214
aa(lp66
F0.0
aF0.0
aF0.0
aF5.007470079273221
aa(lp67
F2.1075233073910433
aF0.0
aF0.0
aF5.022309117537065
aa(lp68
F5.209021711668795
aF7.912377158387837
aF5.71933204691949
aF5.06158078716113
aa(lp69
F4.372071288685431
aF6.762066976091923
aF5.823769929079731
aF5.736246808025628
aa(lp70
F0.0
aF0.0
aF0.0
aF0.0
aa(lp71
F0.0
aF0.0
aF0.0
aF0.0
aa(lp72
F0.16687339333693882
aF0.49741907764778615
aF0.2956968697975853
aF-0.11704003782232639
aa(lp73
F-0.5679644980117098
aF1.2583431058028145
aF-0.18431895333031023
aF-2.5058381497989997
aa(lp74
F-2.490270915707384
aF-2.7980402666613235
aF0.34474910384006446
aF-3.2480839019509986
aa(lp75
F-3.799031173976258
aF-0.7920972230655943
aF-4.2389101291797715
aF-3.7902837876940896
aa(lp76
F-4.774229477646293
aF-1.9804954822669982
aF-2.6596445987304556
aF-3.075
aa(lp77
F-3.142302570057976
aF-2.9
aF-2.45
aF-2.1810941000723982
aa(lp78
F-1.5554774791529637
aF-1.3244661424545419
aF-1.5
aF-1.5
aa(lp79
F-0.5
aF-1.0
aF0.0
aF0.3585710681982752
aa(lp80
F-0.5
aF2.9778105474782866
aF-0.29783422059838816
aF0.0
aa(lp81
F0.0
aF0.0
aF-0.5
aF4.277590893213823
aa(lp82
F2.797155630805377
aF6.158534392399636
aF2.045485150111788
aF4.100758031198232
aa(lp83
F4.211168181190006
aF6.285691755750451
aF4.6147290835031995
aF4.327208119890862
aa(lp84
F0.0
aF0.0
aF0.0
aF0.0
aa(lp85
F0.0
aF0.0
aF0.0
aF0.0
aa(lp86
F0.4725977487115225
aF0.16714880115493774
aF0.014568907619911309
aF-0.21777201346437752
aa(lp87
F0.07396699889465574
aF-1.4422692431134836
aF-1.6048877558966224
aF-1.9384147315511144
aa(lp88
F-1.8784263842932023
aF-2.516318439953152
aF-2.171087572924641
aF-3.6579952601509236
aa(lp89
F-3.0933296065855167
aF-3.29991260169209
aF-1.1734410101666266
aF-3.532539675285335
aa(lp90
F-4.404086897946689
aF-4.178974360375975
aF-3.403808806988516
aF-3.7787846654244293
aa(lp91
F-3.175
aF-2.838608280982392
aF-2.425
aF-2.750219315217231
aa(lp92
F-1.25
aF-2.479201505124153
aF-2.318562348517431
aF-1.4835329861930562
aa(lp93
F-0.5
aF-0.5
aF-1.0
aF2.6771419610958267
aa(lp94
F-0.5
aF-0.5
aF-1.0
aF2.530522630634177
aa(lp95
F2.432099188729816
aF0.0
aF0.0
aF2.9861289835834874
aa(lp96
F3.995326601278294
aF1.9924397176019328
aF2.3155131280378645
aF0.0
aa(lp97
F3.666502659783059
aF5.760905964639857
aF3.1431853566923715
aF3.741604520077989
aa(lp98
F0.0
aF0.0
aF0.0
aF0.0
aa(lp99
F0.0
aF0.0
aF0.0
aF0.0
aa(lp100
F0.7230173020363584
aF0.5058253550376428
aF0.5012146892595464
aF-0.061295964511046686
aa(lp101
F-0.6326642273888374
aF-1.2740772045203652
aF0.5865950489310331
aF-2.1398371154791516
aa(lp102
F-1.0240732897760094
aF-1.9441045531620222
aF-0.3726203367938794
aF-2.432538959740531
aa(lp103
F-3.22078486966839
aF-4.3660780791431995
aF-1.9421807116405292
aF-4.604279531362245
aa(lp104
F-2.0224362092125974
aF-2.925
aF-1.987210022182191
aF-3.158037356410901
aa(lp105
F-3.7901717015136054
aF-3.06505901108525
aF-2.925
aF-2.7365507344946263
aa(lp106
F-1.1685222977862406
aF-1.961199206544781
aF-1.725
aF-0.4022667441348079
aa(lp107
F-1.2101599699510808
aF-0.5
aF-1.7
aF-0.5
aa(lp108
F0.0
aF0.0
aF-0.5
aF2.0564545614994527
aa(lp109
F0.0
aF3.330570262254173
aF0.0
aF0.0
aa(lp110
F3.252638050584485
aF1.4927313992033404
aF2.9317745875545866
aF3.1230760070575254
aa(lp111
F3.4358960425429848
aF5.143179607016394
aF2.9960727576403583
aF3.736615879466675
aa(lp112
F0.0
aF0.0
aF0.0
aF0.0
aa(lp113
F0.0
aF0.0
aF0.0
aF0.0
aa(lp114
F0.895531158604606
aF0.16881596554828404
aF0.5933853717739737
aF-0.11605602752829519
aa(lp115
F0.03334098284867104
aF0.5103344188968477
aF0.7761318263977939
aF-0.7640198246780284
aa(lp116
F-0.8592925925586319
aF-0.6727124101844322
aF0.6787406638899526
aF-2.290987199691429
aa(lp117
F0.10556907146388297
aF-1.925
aF-1.0908546600010518
aF-1.5633510943736788
aa(lp118
F0.013127622361866653
aF-3.1081250000000002
aF-1.769736941077506
aF-1.928713390976869
aa(lp119
F-0.35541379825021613
aF-2.1167721830989494
aF-2.0946774390338527
aF-1.725
aa(lp120
F-0.5
aF-1.3835367107069936
aF-1.225
aF1.6870199815059772
aa(lp121
F-0.5
aF-0.5
aF-0.5
aF1.2758817559533537
aa(lp122
F0.0
aF-0.5
aF-0.5
aF2.303704729072503
aa(lp123
F2.7625833938091984
aF2.2600726823208217
aF1.8185720650830142
aF2.1444137743264955
aa(lp124
F2.662168642748558
aF1.4794241586850154
aF2.298631333158777
aF3.7338767153783543
aa(lp125
F3.106432958823167
aF4.46681697172497
aF2.7378654028139717
aF3.3982600186930743
aa(lp126
F0.0
aF0.0
aF0.0
aF0.0
aa(lp127
F0.0
aF0.0
aF0.0
aF0.0
aa(lp128
F0.9258337822678496
aF0.6259878408095152
aF0.45293193432936035
aF0.8105393833369032
aa(lp129
F0.9976034666232915
aF-0.3375
aF0.795454356956314
aF0.5414304209579563
aa(lp130
F1.1700795730552862
aF-0.30988985280103626
aF0.6162164619170809
aF0.3918685341201813
aa(lp131
F0.6497043480146165
aF-0.5
aF-0.21533687561256298
aF-0.2458606915000403
aa(lp132
F1.239624738661685
aF0.061864633594840734
aF-0.2238186609380133
aF-0.28395587913918297
aa(lp133
F1.2265623232615948
aF-1.0
aF-1.2125
aF-1.5929097199198894
aa(lp134
F1.448804504633439
aF-0.7455036358986092
aF-0.5
aF-0.5
aa(lp135
F0.0
aF0.8803484413876767
aF-0.5
aF2.00896616465783
aa(lp136
F0.7526918936561984
aF2.3419683933420705
aF1.2034387297898796
aF1.7110337882771827
aa(lp137
F2.102348887835033
aF2.6582079915386965
aF1.6538342542094044
aF2.944153483006882
aa(lp138
F2.5663658943707395
aF3.292535578033286
aF2.5372178007441466
aF2.650420737988444
aa(lp139
F2.8784714249310714
aF3.90396052680229
aF2.5395582297993498
aF2.8320891636148025
aa(lp140
F0.0
aF0.0
aF0.0
aF0.0
aa(lp141
F0.0
aF0.0
aF0.0
aF0.0
aa(lp142
F0.0
aF0.5706085695982239
aF0.5127849500682093
aF1.0175596134227516
aa(lp143
F1.1928017568909568
aF0.5799310505733924
aF0.7129085353281741
aF0.7636615848294372
aa(lp144
F1.3298169699532156
aF0.5092123604845822
aF1.0973250622133388
aF1.0635281880363114
aa(lp145
F1.200027082784159
aF-0.3572837194558833
aF0.9565291582598204
aF1.1602989942275093
aa(lp146
F1.5342693439792583
aF0.08689742890398316
aF1.1185400469158289
aF0.8353671026432778
aa(lp147
F1.5499183000458903
aF0.17501107965323223
aF1.1173783624106832
aF1.1077335667246717
aa(lp148
F1.184712199284099
aF0.4819896450525245
aF0.8804854326473506
aF1.8721529775903973
aa(lp149
F1.9370487551625741
aF1.52046426656831
aF1.5069809193702204
aF1.3951140851325845
aa(lp150
F1.836491477495394
aF2.155587964321592
aF1.6826010229187334
aF2.679125968912543
aa(lp151
F2.089233020289121
aF2.4149818297382257
aF2.2604813165230437
aF2.230242021812642
aa(lp152
F2.2540501087590483
aF3.0680450094183107
aF2.178414437425391
aF2.4234770655081723
aa(lp153
F2.3340233421753327
aF3.289475447173947
aF2.6251029057831516
aF2.3616987425346405
aa(lp154
F0.0
aF0.0
aF0.0
aF0.0
aa(lp155
F0.0
aF0.0
aF0.0
aF0.0
aa(lp156
F0.8502372346385569
aF0.9668769885284367
aF0.92196235741499
aF1.1343769030766273
aa(lp157
F0.9372000502539894
aF1.1188018073541377
aF0.9611183682688369
aF1.0620973601859707
aa(lp158
F1.0499990479149024
aF1.0887007027172855
aF1.0291132682472632
aF1.3309005161684766
aa(lp159
F1.1644995163125949
aF1.2704740689130984
aF1.217574164239264
aF1.525173501427496
aa(lp160
F1.232753801385155
aF1.2521054352883563
aF1.2171913783551545
aF1.6389056883623627
aa(lp161
F1.4630851952790764
aF1.531775989491412
aF1.5135079688116941
aF1.8117011780063637
aa(lp162
F1.548383125810109
aF1.542794030564433
aF1.637308295751145
aF2.002369020396941
aa(lp163
F1.8110109106936267
aF2.2100993696908846
aF1.6680816518529902
aF1.9723119244046965
aa(lp164
F1.959642626366771
aF2.31247868371745
aF1.7942539994659614
aF2.216437792220095
aa(lp165
F2.039107621484804
aF2.2036386449657925
aF1.9832241724524318
aF2.1842030551379414
aa(lp166
F1.935141805817047
aF2.6181327068651585
aF2.229696848626059
aF2.160456271611325
aa(lp167
F1.3361918037269893
aF2.5423451408504634
aF2.2209332827053934
aF2.115767627516122
aa(lp168
F0.0
aF0.0
aF0.0
aF0.0
aa(lp169
F0.0
aF0.0
aF0.0
aF0.0
aa(lp170
F0.7962544837471424
aF0.7544475943286735
aF0.6992445679091922
aF0.9664677281242127
aa(lp171
F0.24425050904344925
aF1.1475083938962947
aF0.912208941793749
aF0.8159700956262834
aa(lp172
F0.0
aF1.2804402703309485
aF0.6955452232585575
aF0.8888385675597813
aa(lp173
F0.970340430614516
aF1.2964619613436335
aF0.7021168119867609
aF1.0838146020229202
aa(lp174
F0.8668435410379477
aF1.187948385939901
aF1.0838210915929247
aF1.480398693633819
aa(lp175
F0.0
aF1.606603118942013
aF1.398386772740857
aF0.8240856264444405
aa(lp176
F0.7923821406769022
aF0.8398191187104347
aF0.0
aF1.7510014392333533
aa(lp177
F0.7413882684704588
aF1.3475273925425042
aF0.7086115053817719
aF1.9036688342723314
aa(lp178
F1.2989635106841684
aF2.0640574645871306
aF1.2767990812824919
aF1.5796647378477715
aa(lp179
F0.0
aF2.0944569785757503
aF1.831530366098582
aF0.0
aa(lp180
F0.0
aF2.348999693490096
aF0.8783157810245511
aF1.3870557143021571
aa(lp181
F0.0
aF0.0
aF2.052144967222932
aF0.0
aa(lp182
F0.0
aF0.0
aF0.0
aF0.0
aa(lp183
F0.0
aF0.0
aF0.0
aF0.0
aa(lp184
F0.0
aF0.0
aF0.0
aF0.0
aa(lp185
F0.0
aF0.0
aF0.0
aF0.0
aa(lp186
F0.0
aF0.0
aF0.0
aF0.0
aa(lp187
F0.0
aF0.0
aF0.0
aF0.0
aa(lp188
F0.0
aF0.0
aF0.0
aF0.0
aa(lp189
F0.0
aF0.0
aF0.0
aF0.0
aa(lp190
F0.0
aF0.0
aF0.0
aF0.0
aa(lp191
F0.0
aF0.0
aF0.0
aF0.0
aa(lp192
F0.0
aF0.0
aF0.0
aF0.0
aa(lp193
F0.0
aF0.0
aF0.0
aF0.0
aa(lp194
F0.0
aF0.0
aF0.0
aF0.0
aa(lp195
F0.0
aF0.0
aF0.0
aF0.0
aa(lp196
F0.0
aF0.0
aF0.0
aF0.0
aa.