(lp0
(lp1
F0.0
aF0.0
aF0.0
aF0.0
aa(lp2
F0.0
aF0.0
aF0.0
aF0.0
aa(lp3
F0.0
aF0.0
aF0.0
aF0.0
aa(lp4
F0.0
aF0.0
aF0.0
aF0.0
aa(lp5
F0.0
aF0.0
aF0.0
aF0.0
aa(lp6
F0.0
aF0.0
aF0.0
aF0.0
aa(lp7
F0.0
aF0.0
aF0.0
aF0.0
aa(lp8
F0.0
aF0.0
aF0.0
aF0.0
aa(lp9
F0.0
aF0.0
aF0.0
aF0.0
aa(lp10
F0.0
aF0.0
aF0.0
aF0.0
aa(lp11
F0.0
aF0.0
aF0.0
aF0.0
aa(lp12
F0.0
aF0.0
aF0.0
aF0.0
aa(lp13
F0.0
aF0.0
aF0.0
aF0.0
aa(lp14
F0.0
aF0.0
aF0.0
aF0.0
aa(lp15
F0.0
aF0.0
aF0.0
aF0.0
aa(lp16
F0.0
aF0.0
aF0.0
aF0.0
aa(lp17
F0.0
aF0.0
aF0.0
aF0.0
aa(lp18
F0.0
aF0.0
aF0.0
aF0.0
aa(lp19
F0.0
aF0.0
aF0.0
aF0.0
aa(lp20
F0.0
aF0.0
aF0.0
aF0.0
aa(lp21
F-0.02109375
aF0.0
aF0.0
aF0.0
aa(lp22
F-0.1125
aF0.0
aF0.0
aF-0.0140625
aa(lp23
F-0.10125
aF0.0
aF0.0
aF0.0
aa(lp24
F0.0
aF0.0
aF0.0
aF0.0
aa(lp25
F0.0
aF0.0
aF0.0
aF0.0
aa(lp26
F0.0
aF0.0
aF0.0
aF0.0
aa(lp27
F0.0
aF0.0
aF0.0
aF0.0
aa(lp28
F0.0
aF0.0
aF0.0
aF0.0
aa(lp29
F0.0
aF0.0
aF0.0
aF0.0
aa(lp30
F0.0
aF0.0
aF0.0
aF0.0
aa(lp31
F0.0
aF0.0
aF0.0
aF0.0
aa(lp32
F-0.2253955078125
aF0.0
aF0.0
aF0.0
aa(lp33
F-0.778125
aF-0.5140625
aF-0.50087890625
aF-0.6125
aa(lp34
F-1.146800415802002
aF-0.25
aF-0.5
aF-0.010546875
aa(lp35
F-1.4849999999999999
aF-0.9724999999999999
aF-0.01646484375
aF-0.5
aa(lp36
F-0.75
aF-0.015625
aF-0.8375
aF-0.625
aa(lp37
F-0.75
aF-0.5
aF-0.09843750000000001
aF-0.5
aa(lp38
F-0.5
aF0.0
aF-0.5
aF0.0
aa(lp39
F0.0
aF0.0
aF0.0
aF0.0
aa(lp40
F0.0
aF0.0
aF0.0
aF0.0
aa(lp41
F0.0
aF0.0
aF0.0
aF0.0
aa(lp42
F0.0
aF0.0
aF0.0
aF0.0
aa(lp43
F0.0
aF0.0
aF0.0
aF0.0
aa(lp44
F0.04168874606279624
aF0.0
aF0.0
aF0.0
aa(lp45
F0.0
aF0.0
aF-0.0281744384765625
aF-0.11269775390625
aa(lp46
F-0.5017578125
aF-0.725
aF-0.506820858001709
aF-0.98984375
aa(lp47
F-0.8846912858036269
aF-0.6125
aF-0.010809555053710937
aF-0.75
aa(lp48
F-1.8375000000000001
aF-1.47
aF-0.94744832611084
aF-1.3125
aa(lp49
F-1.8125
aF-1.45
aF-1.25
aF-1.9249999999999998
aa(lp50
F-1.0
aF-1.225
aF-1.2
aF-0.9375
aa(lp51
F-1.0
aF-0.0759375
aF-0.5
aF-0.5
aa(lp52
F-0.5
aF0.0
aF-0.5
aF0.0
aa(lp53
F0.0
aF0.0
aF-0.75
aF0.0
aa(lp54
F0.0
aF0.0
aF0.0
aF0.0
aa(lp55
F0.0
aF0.0
aF0.0
aF0.0
aa(lp56
F0.0
aF0.0
aF0.0
aF0.0
aa(lp57
F0.0
aF0.0
aF0.0
aF0.0
aa(lp58
F0.5367979862450709
aF0.0
aF0.0
aF0.0
aa(lp59
F0.0
aF0.0
aF0.26236356194882315
aF-0.0036322244344982172
aa(lp60
F0.05193048011633333
aF-0.25703125
aF-0.056348876953125
aF-0.8718750000000001
aa(lp61
F-0.75
aF-0.5
aF-0.0039600240895579
aF-1.93875
aa(lp62
F-1.0
aF-1.1
aF-0.9945312500000001
aF-1.0
aa(lp63
F-1.5
aF-1.7571875000000001
aF-1.5
aF-2.2956250000000002
aa(lp64
F-1.5
aF-1.5
aF-1.45
aF-2.175
aa(lp65
F-1.0
aF-0.5
aF-1.43875
aF-0.5
aa(lp66
F-0.5
aF-0.5
aF-1.0
aF0.0
aa(lp67
F0.0
aF0.0
aF-0.5
aF-0.25
aa(lp68
F0.0
aF0.0
aF0.0
aF0.0
aa(lp69
F0.0
aF0.0
aF0.0
aF0.0
aa(lp70
F0.0
aF0.0
aF0.0
aF0.0
aa(lp71
F0.0
aF0.0
aF0.0
aF0.0
aa(lp72
F0.837597834509902
aF0.0
aF0.18496683828195007
aF0.0
aa(lp73
F0.28760901691602525
aF-1.747997567653656e-05
aF0.34783703928069337
aF-0.004227680067084632
aa(lp74
F-0.024463163630815868
aF-0.0009112650194136849
aF-0.5
aF-1.2704106702272795
aa(lp75
F-0.9625
aF-1.125985426464234
aF-0.25488179052314847
aF-1.0
aa(lp76
F-1.0
aF-1.0
aF-0.5
aF0.0
aa(lp77
F0.0
aF-1.725
aF0.0
aF0.0
aa(lp78
F0.0
aF-1.45
aF-1.5
aF0.0
aa(lp79
F-1.0
aF-1.0
aF0.0
aF-0.5
aa(lp80
F-0.975
aF-0.5
aF-1.0
aF1.0608553769267304
aa(lp81
F-0.25
aF0.0
aF-0.5
aF2.55790626711617
aa(lp82
F3.565465732910588
aF0.0
aF0.0
aF0.0
aa(lp83
F0.0
aF0.0
aF0.0
aF0.0
aa(lp84
F0.0
aF0.0
aF0.0
aF0.0
aa(lp85
F0.0
aF0.0
aF0.0
aF0.0
aa(lp86
F0.8197724593076868
aF0.6970641132588153
aF0.7349602033197136
aF0.7140049648909657
aa(lp87
F0.595263848593826
aF0.13132213045625818
aF0.5080422830475204
aF-0.02530069543564303
aa(lp88
F-0.7012921370564542
aF-0.2508771746781202
aF-0.25
aF-1.0
aa(lp89
F-1.0052794425649019
aF-1.1
aF-1.25
aF-1.0
aa(lp90
F-1.0
aF-1.0
aF-0.975
aF-1.5
aa(lp91
F-1.5
aF-1.225
aF0.0
aF-1.0
aa(lp92
F-1.0
aF-1.5
aF-1.5
aF-1.0
aa(lp93
F9.84375
aF-1.0
aF-1.0
aF-0.5
aa(lp94
F3.20926112703255
aF-0.875
aF5.515625
aF2.117913915415941
aa(lp95
F3.6504710814230488
aF0.0
aF2.445942033862287
aF0.7651012177838673
aa(lp96
F3.954282638343178
aF0.0
aF1.793286341531645
aF0.0
aa(lp97
F0.0
aF0.0
aF1.6059769300512339
aF0.0
aa(lp98
F0.0
aF0.0
aF0.0
aF0.0
aa(lp99
F0.0
aF0.0
aF0.0
aF0.0
aa(lp100
F0.7660186627408283
aF0.8252475314214761
aF0.8324753932982736
aF0.963271677642351
aa(lp101
F1.0955694847083786
aF0.7093448697154493
aF-0.034231201171874996
aF0.12526618386632793
aa(lp102
F-0.14536352319404652
aF-0.1804015596114928
aF0.8905609936483692
aF-0.86390625
aa(lp103
F-0.5
aF-0.5
aF0.36648378287149447
aF-1.0
aa(lp104
F0.0
aF-1.0
aF-0.5
aF0.0
aa(lp105
F-1.0
aF0.0
aF-1.5
aF-1.0
aa(lp106
F0.8106974670351275
aF-1.0
aF-1.5
aF-1.0
aa(lp107
F0.0
aF0.0
aF0.0
aF0.0
aa(lp108
F5.186289264097164
aF3.110568731356259
aF9.998309291243428
aF4.69034357995425
aa(lp109
F4.163033352329656
aF4.211049550162606
aF7.516115813254959
aF4.081967596678274
aa(lp110
F0.0
aF0.0
aF4.77043955837267
aF3.0642924583935454
aa(lp111
F0.0
aF0.0
aF3.76628753963701
aF0.3215643843336846
aa(lp112
F0.0
aF0.0
aF0.0
aF0.0
aa(lp113
F0.0
aF0.0
aF0.0
aF0.0
aa(lp114
F1.0099139630877851
aF0.9168883507723669
aF0.8954416824113279
aF0.8871506998566849
aa(lp115
F1.25577184452171
aF0.700903678401448
aF0.8527149346566865
aF1.0083291276461785
aa(lp116
F1.2040293566279592
aF-0.6566238638783559
aF-0.725
aF-0.887237873812202
aa(lp117
F-0.75
aF-0.8604038343677832
aF0.6417692484546561
aF-1.0
aa(lp118
F0.0
aF0.0
aF-0.75
aF0.0
aa(lp119
F-0.5
aF-1.5
aF0.0
aF-1.0
aa(lp120
F0.0
aF-1.5
aF0.0
aF3.4634041471813513
aa(lp121
F2.6493774116565962
aF4.3039616431253656
aF1.763982960762232
aF5.845836064635414
aa(lp122
F4.166755343115774
aF7.967776338893357
aF3.451159823015841
aF4.666311200043264
aa(lp123
F3.7813598582873347
aF5.944546040116607
aF4.075932726936861
aF3.785168163267003
aa(lp124
F1.4832764125985376
aF2.6803749428448174
aF5.086730026804977
aF0.01502362333763982
aa(lp125
F0.0
aF0.32573761303858456
aF2.44699606872169
aF0.3230285553178005
aa(lp126
F0.0
aF0.0
aF0.0
aF0.0
aa(lp127
F0.0
aF0.0
aF0.0
aF0.0
aa(lp128
F0.9911815570494678
aF1.022256571201246
aF0.9918133020624567
aF1.1796712674027354
aa(lp129
F1.203684763850752
aF1.0366296626017344
aF1.0858794671762704
aF1.3433572135567529
aa(lp130
F1.4021967584452009
aF0.6813215435414908
aF1.1732355131282595
aF-0.5
aa(lp131
F1.8026054156840496
aF-0.5
aF-0.3968764221271023
aF-0.2515466568798831
aa(lp132
F1.769677732531217
aF-1.0
aF-0.08473454932388558
aF-0.5
aa(lp133
F-1.0
aF-1.0
aF-0.5
aF1.43739049525238
aa(lp134
F2.9933035778112167
aF-0.5
aF0.7039086826546561
aF-0.5
aa(lp135
F4.3222296971923635
aF2.0269948537055225
aF1.1221567236892374
aF2.5927684895389107
aa(lp136
F5.069639637369516
aF7.02987237427784
aF2.825799950489727
aF3.858359470410795
aa(lp137
F3.8445533356907102
aF4.108621406345954
aF3.6990108565310647
aF3.510702187454762
aa(lp138
F0.0
aF4.089664995532381
aF1.8704231277970627
aF0.006778734529929621
aa(lp139
F0.0
aF0.0
aF1.752532341888887
aF0.0035741691837751716
aa(lp140
F0.0
aF0.0
aF0.0
aF0.0
aa(lp141
F0.0
aF0.0
aF0.0
aF0.0
aa(lp142
F1.1282384383953443
aF1.1089056637623451
aF1.117596303359943
aF1.2486987560599034
aa(lp143
F1.521890392617541
aF1.1815805601167992
aF1.205907969905811
aF1.2176977328445622
aa(lp144
F1.5442618914879644
aF1.3331376482444597
aF1.5002425687942678
aF1.5831231856006085
aa(lp145
F1.9346485690687327
aF-0.09255263571565348
aF1.6436612297220852
aF1.4810640785673312
aa(lp146
F1.8577807549734673
aF0.16727413013827902
aF0.5528622116580483
aF1.4693846357061022
aa(lp147
F2.7792249384177805
aF-0.75
aF1.243655069699042
aF1.0510167670692456
aa(lp148
F3.2883594357301087
aF1.3674406829222003
aF-0.5
aF3.174219580882128
aa(lp149
F3.9007001719907253
aF3.5151500494952725
aF3.2790176601398793
aF5.2596992847726485
aa(lp150
F4.486640043010777
aF6.123584336686809
aF4.872269248539513
aF4.410820553048653
aa(lp151
F3.399637217298083
aF4.702808212235552
aF3.363949561783313
aF3.441532374784117
aa(lp152
F0.0
aF1.750088246098432
aF3.342138742869876
aF0.0
aa(lp153
F0.0
aF0.0
aF0.02717336971598041
aF0.0
aa(lp154
F0.0
aF0.0
aF0.0
aF0.0
aa(lp155
F0.0
aF0.0
aF0.0
aF0.0
aa(lp156
F1.318240526944082
aF1.1976638859443325
aF1.1532245920237
aF1.49352493254839
aa(lp157
F1.795543257154654
aF1.4346333590406222
aF1.2070984379390568
aF1.3154884108528127
aa(lp158
F1.961338154210565
aF1.5101366341117504
aF1.4580930109566799
aF1.7408069087776252
aa(lp159
F1.9853534487617766
aF1.7069084227743785
aF1.564758528064793
aF2.381870921282757
aa(lp160
F2.2848677625791796
aF1.8776395414421658
aF1.8892896798775625
aF2.5769916273296225
aa(lp161
F2.306748289647567
aF2.312703175413578
aF2.3003905584371966
aF3.0920216847004554
aa(lp162
F2.949333101685978
aF2.785790877436622
aF2.864542921462631
aF3.9686875380672415
aa(lp163
F3.161463577431411
aF4.61923690031286
aF3.556045584754415
aF3.7294136201127674
aa(lp164
F3.823159237564803
aF4.834572631693079
aF3.3533305076438236
aF3.8143691479656434
aa(lp165
F2.6014681009588756
aF0.0
aF4.1619803111509714
aF0.9714944198499216
aa(lp166
F0.0
aF3.322258625540807
aF0.0
aF0.0
aa(lp167
F0.0
aF0.0
aF0.0
aF0.0
aa(lp168
F0.0
aF0.0
aF0.0
aF0.0
aa(lp169
F0.0
aF0.0
aF0.0
aF0.0
aa(lp170
F1.1628182759301016
aF1.1899135640856278
aF1.3258349802025091
aF1.739060005433899
aa(lp171
F1.556753590922252
aF1.4011044002413033
aF1.372782918321083
aF2.02758147581432
aa(lp172
F1.7544879921430412
aF1.591856772922603
aF1.7504934201011104
aF2.2870734772464623
aa(lp173
F2.0345776101717146
aF1.8135200054350475
aF1.9082386553808455
aF2.5875217815772986
aa(lp174
F2.24049870909818
aF2.024373122074854
aF2.2252387456228293
aF2.946492590147977
aa(lp175
F2.2715316784179977
aF2.85276432552537
aF2.4339572419301785
aF3.342152924516683
aa(lp176
F2.445241551316612
aF2.6705663080167334
aF2.8041042256205855
aF3.718401840716803
aa(lp177
F3.159592554617859
aF3.4560990126396653
aF3.2377491837524897
aF4.058857902152791
aa(lp178
F3.6992778817905307
aF4.453839236994928
aF2.7207204345568003
aF2.3387281392563875
aa(lp179
F0.0
aF3.6048426421128568
aF0.0
aF0.0
aa(lp180
F0.0
aF0.0
aF0.0
aF0.0
aa(lp181
F0.0
aF0.0
aF0.0
aF0.0
aa(lp182
F0.0
aF0.0
aF0.0
aF0.0
aa(lp183
F0.0
aF0.0
aF0.0
aF0.0
aa(lp184
F0.0
aF0.0
aF0.0
aF0.0
aa(lp185
F0.0
aF0.0
aF0.0
aF0.0
aa(lp186
F0.0
aF0.0
aF0.0
aF0.0
aa(lp187
F0.0
aF0.0
aF0.0
aF0.0
aa(lp188
F0.0
aF0.0
aF0.0
aF0.0
aa(lp189
F0.0
aF0.0
aF0.0
aF0.0
aa(lp190
F0.0
aF0.0
aF0.0
aF0.0
aa(lp191
F0.0
aF0.0
aF0.0
aF0.0
aa(lp192
F0.0
aF0.0
aF0.0
aF0.0
aa(lp193
F0.0
aF0.0
aF0.0
aF0.0
aa(lp194
F0.0
aF0.0
aF0.0
aF0.0
aa(lp195
F0.0
aF0.0
aF0.0
aF0.0
aa(lp196
F0.0
aF0.0
aF0.0
aF0.0
aa.