(lp0
(lp1
F0.0
aF0.0
aF0.0
aF0.0
aa(lp2
F0.0
aF0.0
aF0.0
aF0.0
aa(lp3
F0.0
aF0.0
aF0.0
aF0.0
aa(lp4
F0.0
aF0.0
aF0.0
aF0.0
aa(lp5
F0.0
aF0.0
aF0.0
aF0.0
aa(lp6
F0.0
aF0.0
aF0.0
aF0.0
aa(lp7
F0.0
aF0.0
aF0.0
aF0.0
aa(lp8
F0.0
aF0.0
aF0.0
aF0.0
aa(lp9
F0.0
aF0.0
aF0.0
aF0.0
aa(lp10
F0.0
aF0.0
aF0.0
aF0.0
aa(lp11
F0.0
aF0.0
aF0.0
aF0.0
aa(lp12
F0.0
aF0.0
aF0.0
aF0.0
aa(lp13
F0.0
aF0.0
aF0.0
aF0.0
aa(lp14
F0.0
aF0.0
aF0.0
aF0.0
aa(lp15
F0.0
aF0.0
aF0.0
aF0.0
aa(lp16
F-4.156002002026882e-09
aF-1.0049818157024293e-08
aF-9.605141351732034e-09
aF-1.9253004271192158e-08
aa(lp17
F-1.7051692941033024e-06
aF-9.573786972085036e-08
aF-3.132452154423818e-05
aF-3.0104549231172957e-06
aa(lp18
F-1.3593453615986814e-05
aF-8.654338164103489e-06
aF-2.0995018219745284e-08
aF-1.8531247521273364e-05
aa(lp19
F-0.0003398191000201561
aF-5.209394038370328e-05
aF-0.007387845881057225
aF-4.594891595146838e-05
aa(lp20
F-0.010766770349191376
aF-0.0001828551027366038
aF-1.4478296340778535e-05
aF-0.00017562596381646495
aa(lp21
F-0.022941030574829328
aF-1.169268373387964e-05
aF-0.0006078679180749099
aF-0.0011168989608720198
aa(lp22
F-0.008858093056795533
aF-0.01005057166147651
aF-8.675017530313496e-05
aF-0.00010370034607741705
aa(lp23
F-0.06335352423702872
aF-0.0015945277674029566
aF-0.0073039861802245525
aF-0.005193568495299999
aa(lp24
F-0.05625
aF-0.02091265919344375
aF-1.4679019788764574e-08
aF-0.00914614259680674
aa(lp25
F0.0
aF0.0
aF-1.5867865395415024e-09
aF0.0
aa(lp26
F0.0
aF0.0
aF0.0
aF0.0
aa(lp27
F0.0
aF0.0
aF0.0
aF0.0
aa(lp28
F0.0
aF0.0
aF0.0
aF0.0
aa(lp29
F0.0
aF0.0
aF0.0
aF0.0
aa(lp30
F-3.8349084267205426e-09
aF-2.9456126020580673e-05
aF-2.2556831896546133e-08
aF-2.5140506367208167e-05
aa(lp31
F-0.00012258122691491364
aF-0.000106822413473771
aF-3.480650442883425e-05
aF-0.0004955373232054733
aa(lp32
F-0.019011318194281215
aF-0.0005371415978713944
aF-0.11255118843388547
aF-0.05642183786289383
aa(lp33
F-0.75
aF-0.5606172365798376
aF-0.75251187409261
aF-0.5052586818819103
aa(lp34
F-1.0255061302757262
aF-0.06253457863762713
aF-0.016408414452068625
aF-0.6300860562871109
aa(lp35
F-1.0826066650390624
aF-0.8262499999999999
aF-0.25
aF-0.023467303990153184
aa(lp36
F-0.4687507786841666
aF-0.31960975825786586
aF-0.3130007556853453
aF-0.015257768023792036
aa(lp37
F-1.240625
aF-0.4410573474158457
aF-0.012587092601284402
aF-0.20520770255528575
aa(lp38
F-0.5878125
aF-0.5
aF-0.03545454865557836
aF-0.25
aa(lp39
F0.0
aF0.0
aF-0.053789218869563137
aF0.0
aa(lp40
F0.0
aF0.0
aF0.0
aF0.0
aa(lp41
F0.0
aF0.0
aF0.0
aF0.0
aa(lp42
F0.0
aF0.0
aF0.0
aF0.0
aa(lp43
F0.0
aF0.0
aF0.0
aF0.0
aa(lp44
F-4.405777721399684e-08
aF-6.203010504147157e-08
aF-0.0003967294339319439
aF-3.9148197965308605e-08
aa(lp45
F-0.007031614296197479
aF-2.324696294175855e-05
aF-0.02812500498396232
aF-0.05625072772892266
aa(lp46
F-0.5001202726833784
aF-0.25002082381696833
aF-0.0013969227675775225
aF-0.9375733921655189
aa(lp47
F-0.5
aF-0.14287880013747437
aF-0.7390625
aF-1.0875
aa(lp48
F-1.0
aF-0.06846493570119805
aF-0.75
aF-0.8054681038513184
aa(lp49
F-1.0
aF-0.09421896501284945
aF-0.8625
aF-1.475
aa(lp50
F-1.0
aF-0.3324555415144573
aF-0.75
aF-1.0875
aa(lp51
F-1.0
aF-1.03125
aF-0.9509375
aF-0.9091086905036672
aa(lp52
F-1.0875
aF-0.037898545004074656
aF-0.5
aF-0.5
aa(lp53
F0.0
aF-0.5470181094826069
aF-0.9456477765151469
aF-0.5
aa(lp54
F0.0
aF0.0
aF0.0
aF0.0
aa(lp55
F0.0
aF0.0
aF0.0
aF0.0
aa(lp56
F0.0
aF0.0
aF0.0
aF0.0
aa(lp57
F0.0
aF0.0
aF0.0
aF0.0
aa(lp58
F0.5567476942234952
aF-5.215237251181573e-07
aF-4.5856472408427034e-07
aF-6.685915780126062e-07
aa(lp59
F0.15948054331220574
aF-6.652528848330478e-05
aF-2.8254566389455543e-05
aF-1.5656439960579233e-05
aa(lp60
F-0.001111376953125
aF-0.5
aF0.022008712166113695
aF-0.3125173652648926
aa(lp61
F-0.75
aF-0.5
aF-1.6095622119131602e-06
aF-1.0
aa(lp62
F-1.0
aF-0.975
aF-0.5
aF-1.0
aa(lp63
F-1.5
aF-1.162015625
aF-1.225
aF-1.0
aa(lp64
F0.0
aF-0.5
aF-1.93875
aF-1.225
aa(lp65
F-1.25
aF-0.725
aF-1.0
aF-0.975
aa(lp66
F-1.2125
aF-0.9341997764949705
aF-1.0
aF-1.0
aa(lp67
F1.6573214608357085
aF0.0
aF-0.55
aF0.0
aa(lp68
F0.0
aF0.0
aF0.0
aF0.0
aa(lp69
F0.0
aF0.0
aF0.0
aF0.0
aa(lp70
F0.0
aF0.0
aF0.0
aF0.0
aa(lp71
F0.0
aF0.0
aF0.0
aF0.0
aa(lp72
F0.9169671746567898
aF0.24722730135230436
aF-5.958818872607245e-06
aF0.08135117357923913
aa(lp73
F-5.1461965695367463e-05
aF0.06350034614577461
aF0.4670966277142251
aF-0.0002237951163524669
aa(lp74
F-0.015470041053596477
aF-0.5
aF0.08135085477372227
aF-0.5
aa(lp75
F-0.6012500000000001
aF-0.5
aF-3.473052978515625e-05
aF-1.0
aa(lp76
F-1.0
aF-1.0
aF-0.5
aF-1.5
aa(lp77
F-1.5
aF-1.0
aF-1.0
aF0.0
aa(lp78
F-1.0
aF-1.0
aF0.0
aF-1.0
aa(lp79
F-1.0
aF-1.0
aF-1.5
aF-0.975
aa(lp80
F1.9914613800505414
aF-1.360081977392173
aF-1.0
aF-1.0
aa(lp81
F4.277907181152856
aF0.0
aF-0.5
aF-0.66875
aa(lp82
F0.0
aF0.0
aF0.0
aF0.0
aa(lp83
F0.0
aF0.0
aF0.0
aF0.0
aa(lp84
F0.0
aF0.0
aF0.0
aF0.0
aa(lp85
F0.0
aF0.0
aF0.0
aF0.0
aa(lp86
F0.9987786950711316
aF0.7184218716426704
aF0.9394924371485859
aF0.7339897887614075
aa(lp87
F0.7270260634818386
aF-0.002810412055947556
aF-0.0013450918809731283
aF0.5038752747439148
aa(lp88
F-0.5691426809112488
aF-0.5
aF0.6758261570107498
aF-1.038125
aa(lp89
F-0.7040312499999999
aF-0.75
aF-1.2882812500000003
aF-1.0
aa(lp90
F-1.0
aF-1.0
aF-0.975
aF-1.5
aa(lp91
F-1.5
aF-1.5
aF-1.0
aF0.0
aa(lp92
F-1.0
aF-1.5
aF-1.5
aF-1.0
aa(lp93
F8.831108723209397
aF-1.225
aF-1.0
aF-0.5
aa(lp94
F1.816644962971948
aF-0.40545391718009344
aF1.947997850888457
aF3.699168630919768
aa(lp95
F4.855280262694157
aF0.0
aF1.2187592773630587
aF0.42855789952372303
aa(lp96
F0.2373046875
aF0.0
aF4.322897266191626
aF0.0
aa(lp97
F0.0
aF0.0
aF0.0
aF0.0
aa(lp98
F0.0
aF0.0
aF0.0
aF0.0
aa(lp99
F0.0
aF0.0
aF0.0
aF0.0
aa(lp100
F1.1585853741532484
aF0.9581351803476453
aF0.9796285808729693
aF0.9580608299523663
aa(lp101
F0.5804886651016519
aF0.5090512825648554
aF1.083274041706571
aF0.2633064581505353
aa(lp102
F-0.07379022757849213
aF0.5997942476473226
aF-0.5180262876281654
aF-0.875
aa(lp103
F-0.5
aF-0.975
aF0.09950747673572283
aF-1.0
aa(lp104
F-1.0
aF-1.0
aF-0.5
aF-1.0
aa(lp105
F-1.0
aF-1.5
aF-1.0
aF-0.7569649583659531
aa(lp106
F2.7745738136448326
aF-1.0
aF-1.5
aF0.0
aa(lp107
F0.0
aF0.0
aF0.0
aF0.0
aa(lp108
F6.398989372826031
aF2.8428803282392767
aF9.999217529662792
aF5.319665061841892
aa(lp109
F5.471538574975851
aF4.585256284439544
aF5.108953987657979
aF4.903258883815791
aa(lp110
F0.0
aF1.736088202133479
aF5.2654146863120275
aF1.2400361563605231
aa(lp111
F2.755635903023385
aF0.0
aF3.094045610228576
aF0.0
aa(lp112
F0.0
aF0.0
aF0.0
aF0.0
aa(lp113
F0.0
aF0.0
aF0.0
aF0.0
aa(lp114
F1.3316823274456784
aF0.9930479622437753
aF0.9615853694417493
aF0.8026836852067716
aa(lp115
F-0.0008727531505538525
aF1.0284663420729476
aF0.6003053967445369
aF0.6490432694979509
aa(lp116
F1.0592915775725682
aF-0.001118746637125014
aF-0.0481192831953301
aF-0.5
aa(lp117
F-0.5
aF-0.75
aF-1.0635063701156655
aF-1.0
aa(lp118
F-0.12161525714844668
aF-1.0
aF-0.8751601806640625
aF-1.0
aa(lp119
F0.9648372913298994
aF-1.5
aF-1.5
aF-1.0
aa(lp120
F1.2423335904151633
aF-0.4039982128246259
aF-1.5
aF7.461955435949919
aa(lp121
F4.12658199141174
aF9.997957604294903
aF4.262343687825199
aF4.452982754888637
aa(lp122
F5.780013594157949
aF7.99341443360846
aF6.201003518277262
aF5.969134090053632
aa(lp123
F4.815225814177229
aF4.363364571841309
aF6.2963518280055135
aF4.510040600189972
aa(lp124
F3.6372966227534875
aF5.007893227737859
aF4.026475790368962
aF0.0
aa(lp125
F0.0
aF0.0
aF4.702080693473854
aF0.0
aa(lp126
F0.0
aF0.0
aF0.0
aF0.0
aa(lp127
F0.0
aF0.0
aF0.0
aF0.0
aa(lp128
F1.1039266819956919
aF1.1699177959960443
aF1.0569971939821987
aF1.5257428340957153
aa(lp129
F1.736887160009608
aF0.7927394078077592
aF1.1491004934088962
aF0.9071663872524478
aa(lp130
F1.5506794961986194
aF0.5527823900750641
aF-0.5027397530007065
aF-0.19269593446290367
aa(lp131
F2.0247553634440774
aF-0.5
aF-0.25493155540127177
aF0.12116544387425876
aa(lp132
F1.7267637486043301
aF-1.225
aF-0.5
aF-1.7125
aa(lp133
F2.338105105019797
aF-1.0
aF-0.35123802765730167
aF1.0469749308918304
aa(lp134
F-1.0
aF3.6639315127758847
aF1.6692199866656448
aF-1.1759374999999999
aa(lp135
F4.256609576245529
aF4.7355879999132755
aF3.1476566365928975
aF5.796859664806504
aa(lp136
F4.9412300166733445
aF7.080228957964376
aF4.159460537356943
aF4.579151407602325
aa(lp137
F4.040258128987799
aF5.634676547753471
aF3.7345814712991023
aF3.6691775155906523
aa(lp138
F2.0262649078000203
aF4.623824859469611
aF3.500437046706116
aF2.495319711819845
aa(lp139
F0.8056280003272246
aF0.0
aF3.9002401090644234
aF0.0
aa(lp140
F0.0
aF0.0
aF0.0
aF0.0
aa(lp141
F0.0
aF0.0
aF0.0
aF0.0
aa(lp142
F1.5381099363842055
aF1.2870695124119718
aF1.2833290647217188
aF1.3003899145541187
aa(lp143
F1.70583851012955
aF1.5417642927656323
aF1.2377762670521235
aF1.9293422299645482
aa(lp144
F2.11252335111591
aF1.3123083447623674
aF1.7654595605277454
aF1.870885809868318
aa(lp145
F2.3009808525055826
aF1.0190854673334417
aF1.8673598833890632
aF2.0345417923554647
aa(lp146
F1.365105319832574
aF0.5645327341983231
aF1.864995952793194
aF2.9899746351097907
aa(lp147
F2.124116551501973
aF1.0377185434695748
aF2.0321603306563887
aF3.8706550156569004
aa(lp148
F2.8132850143933466
aF2.278992481064222
aF2.6749100160480648
aF4.510242499361414
aa(lp149
F3.549710077393612
aF3.0693998319907414
aF3.4050653469475733
aF4.902333170119565
aa(lp150
F4.016058359286488
aF5.975560504355075
aF4.275861514445475
aF3.7381348102915855
aa(lp151
F2.5300940501031928
aF4.829258010873342
aF3.375374536207686
aF3.553852829804833
aa(lp152
F0.0
aF4.433343725100858
aF0.0
aF0.0
aa(lp153
F0.0
aF0.0
aF2.344900457419736
aF0.0
aa(lp154
F0.0
aF0.0
aF0.0
aF0.0
aa(lp155
F0.0
aF0.0
aF0.0
aF0.0
aa(lp156
F1.4191318067178051
aF1.5575471176250533
aF1.664000777576311
aF1.9902817952072027
aa(lp157
F1.509564623205185
aF1.8023422657416326
aF1.7901884923987939
aF2.1519566676332973
aa(lp158
F1.6615081414204336
aF1.5756978795967562
aF1.8257526922696825
aF2.6818835550178663
aa(lp159
F1.6167632434459334
aF1.8390419306827126
aF2.001211936710628
aF2.986490203140629
aa(lp160
F2.322479470827418
aF2.1578705178862942
aF2.2578633300073436
aF3.28886207064304
aa(lp161
F2.710846557979604
aF2.7958097304254306
aF2.64602544120894
aF3.278255587565913
aa(lp162
F3.1480591536193847
aF2.9414318213243424
aF3.0886780298900676
aF3.807076039379637
aa(lp163
F2.677818219905208
aF4.397249468130937
aF3.725429166754526
aF4.744577131858443
aa(lp164
F3.1479932754850948
aF5.231990661926314
aF3.775645915054824
aF3.420633675686597
aa(lp165
F0.9707184871998941
aF4.339841017998829
aF3.276732043085384
aF1.0621527774731074
aa(lp166
F0.0
aF2.964032254396739
aF0.0
aF0.0
aa(lp167
F0.0
aF0.0
aF0.12528539038120884
aF0.0
aa(lp168
F0.0
aF0.0
aF0.0
aF0.0
aa(lp169
F0.0
aF0.0
aF0.0
aF0.0
aa(lp170
F1.43504312671707
aF1.6782769890800655
aF1.2455423157059045
aF1.2326877605376165
aa(lp171
F1.488334453795736
aF1.7138873067750424
aF1.4997293738331234
aF1.6565896468516077
aa(lp172
F1.4599467544310762
aF2.0906589301734737
aF1.4818894200487622
aF1.4559230076814034
aa(lp173
F0.5004019854982203
aF1.379561434965353
aF1.6878349183731927
aF1.343080548635248
aa(lp174
F1.5761825223688706
aF2.6035629750985754
aF1.4686257319247105
aF1.352792410988996
aa(lp175
F0.0
aF2.2651895998279175
aF1.192224390072163
aF3.180443725890158
aa(lp176
F2.6120230002773477
aF3.7570883849149643
aF2.700876884817558
aF2.032618385679529
aa(lp177
F2.615013718201725
aF0.0
aF3.2329674410803166
aF2.662065613359833
aa(lp178
F2.4771042529009586
aF4.006420270173898
aF2.2017242944025996
aF2.1219017310501602
aa(lp179
F0.0
aF0.0
aF2.7963137621444947
aF0.0
aa(lp180
F0.0
aF0.0
aF1.1946271537544706
aF0.0
aa(lp181
F0.0
aF0.0
aF0.0
aF0.0
aa(lp182
F0.0
aF0.0
aF0.0
aF0.0
aa(lp183
F0.0
aF0.0
aF0.0
aF0.0
aa(lp184
F0.0
aF0.0
aF0.0
aF0.0
aa(lp185
F0.0
aF0.0
aF0.0
aF0.0
aa(lp186
F0.0
aF0.0
aF0.0
aF0.0
aa(lp187
F0.0
aF0.0
aF0.0
aF0.0
aa(lp188
F0.0
aF0.0
aF0.0
aF0.0
aa(lp189
F0.0
aF0.0
aF0.0
aF0.0
aa(lp190
F0.0
aF0.0
aF0.0
aF0.0
aa(lp191
F0.0
aF0.0
aF0.0
aF0.0
aa(lp192
F0.0
aF0.0
aF0.0
aF0.0
aa(lp193
F0.0
aF0.0
aF0.0
aF0.0
aa(lp194
F0.0
aF0.0
aF0.0
aF0.0
aa(lp195
F0.0
aF0.0
aF0.0
aF0.0
aa(lp196
F0.0
aF0.0
aF0.0
aF0.0
aa.